Certificate:
    Data:
        Version: 3 (0x2)
        Serial Number:
            01:e3:2d:4b:73:3f:9b:81:f2:f3:9e:55:f2:03:a8:ca
        Signature Algorithm: sha256WithRSAEncryption
        Issuer: CN=Easy-RSA CA
        Validity
            Not Before: May  9 06:39:49 2024 GMT
            Not After : May  7 06:39:49 2034 GMT
        Subject: CN=a9b8cc0ba5cb299f1a1a4d6761e23e48
        Subject Public Key Info:
            Public Key Algorithm: rsaEncryption
                RSA Public-Key: (2048 bit)
                Modulus:
                    00:da:52:fe:d8:05:79:7a:03:6b:c2:9c:b5:fd:0f:
                    f8:b8:e4:9e:7c:ca:f7:cd:4f:71:49:ab:98:25:05:
                    ef:3d:88:f0:dc:5b:8f:2e:a6:cc:b9:d9:eb:7b:9a:
                    42:61:7a:5a:00:66:68:d9:a9:b6:16:14:a1:25:c3:
                    57:5b:5d:1e:0d:db:ae:2b:e5:48:2d:ac:7b:ab:86:
                    46:f8:99:ee:b6:90:c3:dc:40:df:42:22:70:ae:e5:
                    59:c4:fe:4c:79:6e:f7:8d:85:d3:06:6a:f8:ed:88:
                    96:cd:07:8e:84:b4:5d:c1:c2:dc:1d:a1:24:c9:88:
                    37:90:7a:90:cc:7f:3e:d4:68:d5:20:9c:08:23:3b:
                    41:79:3f:68:83:a5:47:8a:c3:02:99:31:29:a4:1d:
                    c8:86:26:96:2a:9a:ed:6a:5d:47:21:18:63:70:84:
                    0e:0c:bf:a0:67:22:03:31:8f:a9:d5:98:a9:04:a3:
                    12:b8:92:93:03:49:ec:87:ed:c7:16:9e:e1:c4:fb:
                    dc:51:1f:ff:f4:cd:b5:1e:98:af:ce:c8:cc:1d:e0:
                    0e:0c:0b:6e:93:e8:9d:21:35:42:34:6c:2c:c1:ff:
                    09:ce:87:bd:c0:5b:84:ba:fb:04:7d:ad:08:89:8f:
                    a9:d4:d3:a7:8f:17:07:e9:a1:30:a1:62:e8:b9:77:
                    da:87
                Exponent: 65537 (0x10001)
        X509v3 extensions:
            X509v3 Basic Constraints: 
                CA:FALSE
            X509v3 Subject Key Identifier: 
                FF:9B:7D:E2:34:A6:48:5D:04:D1:E4:2F:72:AF:BB:E9:AD:A2:F4:5A
            X509v3 Authority Key Identifier: 
                keyid:40:FA:6F:B4:75:ED:A5:98:90:09:C1:4C:46:41:77:2B:E9:19:98:A8
                DirName:/CN=Easy-RSA CA
                serial:3F:90:F5:95:20:0C:19:8D:91:81:72:D4:81:7B:92:A9:03:EB:DC:F6

            X509v3 Extended Key Usage: 
                TLS Web Client Authentication
            X509v3 Key Usage: 
                Digital Signature
    Signature Algorithm: sha256WithRSAEncryption
         4e:05:36:6c:de:a0:63:32:2c:b5:50:3d:8c:79:1a:95:f9:e3:
         8d:23:12:5e:7e:1c:3a:85:b9:04:30:76:6d:5f:ad:3f:70:4b:
         30:e4:28:37:30:6c:6f:8b:3e:75:d4:d9:c9:01:74:a2:23:52:
         21:89:02:50:15:6c:47:4b:2b:37:db:12:3b:4d:bf:7f:84:4d:
         f0:44:44:25:1d:11:47:5b:3e:bf:b6:0d:dc:a5:1b:89:2d:cd:
         e7:bd:bb:0b:1f:06:89:92:ab:97:92:2d:57:04:7a:e4:30:1b:
         a7:4b:92:7f:1c:dd:c5:e3:0e:02:1b:13:2c:de:72:56:4f:c3:
         95:65:e7:7f:0a:7b:f6:40:4e:87:3e:e5:2c:22:3f:10:af:a1:
         3a:62:fe:b4:a8:65:8d:fe:e0:28:f4:87:6c:ee:68:e7:ef:10:
         75:8e:9c:79:45:6b:a8:28:f0:fa:ec:d5:88:43:3b:2c:f6:02:
         a9:23:1c:c0:24:4f:8e:1d:d0:30:16:6b:9b:ce:e9:6f:26:2f:
         de:f7:98:71:dd:1a:a3:4f:28:ad:32:e9:48:99:23:55:f8:ff:
         69:cb:b5:63:49:9a:fc:6b:5e:29:f5:ab:b4:3f:7f:0c:50:87:
         65:b3:03:30:ba:fd:94:01:2e:bd:c4:7e:a6:ec:b8:50:59:82:
         c7:2c:7e:bf
-----BEGIN CERTIFICATE-----
MIIDbjCCAlagAwIBAgIQAeMtS3M/m4Hy855V8gOoyjANBgkqhkiG9w0BAQsFADAW
MRQwEgYDVQQDDAtFYXN5LVJTQSBDQTAeFw0yNDA1MDkwNjM5NDlaFw0zNDA1MDcw
NjM5NDlaMCsxKTAnBgNVBAMMIGE5YjhjYzBiYTVjYjI5OWYxYTFhNGQ2NzYxZTIz
ZTQ4MIIBIjANBgkqhkiG9w0BAQEFAAOCAQ8AMIIBCgKCAQEA2lL+2AV5egNrwpy1
/Q/4uOSefMr3zU9xSauYJQXvPYjw3FuPLqbMudnre5pCYXpaAGZo2am2FhShJcNX
W10eDduuK+VILax7q4ZG+JnutpDD3EDfQiJwruVZxP5MeW73jYXTBmr47YiWzQeO
hLRdwcLcHaEkyYg3kHqQzH8+1GjVIJwIIztBeT9og6VHisMCmTEppB3IhiaWKprt
al1HIRhjcIQODL+gZyIDMY+p1ZipBKMSuJKTA0nsh+3HFp7hxPvcUR//9M21Hpiv
zsjMHeAODAtuk+idITVCNGwswf8Jzoe9wFuEuvsEfa0IiY+p1NOnjxcH6aEwoWLo
uXfahwIDAQABo4GiMIGfMAkGA1UdEwQCMAAwHQYDVR0OBBYEFP+bfeI0pkhdBNHk
L3Kvu+mtovRaMFEGA1UdIwRKMEiAFED6b7R17aWYkAnBTEZBdyvpGZiooRqkGDAW
MRQwEgYDVQQDDAtFYXN5LVJTQSBDQYIUP5D1lSAMGY2RgXLUgXuSqQPr3PYwEwYD
VR0lBAwwCgYIKwYBBQUHAwIwCwYDVR0PBAQDAgeAMA0GCSqGSIb3DQEBCwUAA4IB
AQBOBTZs3qBjMiy1UD2MeRqV+eONIxJefhw6hbkEMHZtX60/cEsw5Cg3MGxviz51
1NnJAXSiI1IhiQJQFWxHSys32xI7Tb9/hE3wREQlHRFHWz6/tg3cpRuJLc3nvbsL
HwaJkquXki1XBHrkMBunS5J/HN3F4w4CGxMs3nJWT8OVZed/Cnv2QE6HPuUsIj8Q
r6E6Yv60qGWN/uAo9Ids7mjn7xB1jpx5RWuoKPD67NWIQzss9gKpIxzAJE+OHdAw
FmubzulvJi/e95hx3RqjTyitMulImSNV+P9py7VjSZr8a14p9au0P38MUIdlswMw
uv2UAS69xH6m7LhQWYLHLH6/
-----END CERTIFICATE-----
