Certificate:
    Data:
        Version: 3 (0x2)
        Serial Number:
            12:57:c8:95:7e:15:39:bb:1e:27:46:5f:fd:98:81:62
        Signature Algorithm: sha256WithRSAEncryption
        Issuer: CN=Easy-RSA CA
        Validity
            Not Before: May 15 02:15:45 2024 GMT
            Not After : May 13 02:15:45 2034 GMT
        Subject: CN=21232f297a57a5a743894a0e4a801fc3
        Subject Public Key Info:
            Public Key Algorithm: rsaEncryption
                Public-Key: (2048 bit)
                Modulus:
                    00:cf:a2:b2:55:16:f1:f7:43:37:c1:79:10:c8:52:
                    b0:6c:69:72:46:5e:7e:ae:d1:e0:43:62:74:71:da:
                    59:6d:5f:08:9a:82:18:38:10:06:6a:1d:c3:36:ca:
                    f5:9d:bd:0b:94:43:af:5d:0e:c8:22:58:28:27:e1:
                    3b:fe:24:7a:8f:59:0f:32:e0:46:ce:9f:59:ce:c4:
                    a5:4d:58:a7:8c:3c:a6:b8:44:fc:d2:a4:75:32:5b:
                    6f:ec:a0:52:3b:2f:05:6e:38:1b:cc:dd:f2:54:c3:
                    b6:12:5b:d6:b4:f0:44:06:81:9d:8d:f4:25:07:64:
                    3b:b3:f4:c8:eb:e8:1b:8b:bf:05:73:7d:c0:f1:78:
                    24:f2:d0:9a:6d:3f:86:6c:23:d3:ba:25:e0:24:da:
                    d2:05:f0:72:80:c0:c2:32:3a:c3:0b:ec:f0:60:d5:
                    4e:c6:b7:f0:24:ab:5e:5e:31:d0:73:49:7f:d0:47:
                    56:e1:d9:42:fa:62:96:17:86:1f:d3:b3:97:f5:93:
                    32:99:6c:da:28:47:62:99:f7:29:c7:81:ff:63:a9:
                    09:40:dd:58:9e:5b:1a:46:2f:96:d5:3d:bc:7e:f6:
                    db:25:b4:ea:0e:aa:42:3c:c4:47:d6:9c:38:fc:db:
                    90:26:ea:e5:0b:5a:9e:8b:e8:9b:ef:d1:9f:0b:4c:
                    2c:8f
                Exponent: 65537 (0x10001)
        X509v3 extensions:
            X509v3 Basic Constraints: 
                CA:FALSE
            X509v3 Subject Key Identifier: 
                ED:83:67:65:E9:6A:E4:82:BB:61:C0:B7:4F:11:5D:09:04:15:E5:6B
            X509v3 Authority Key Identifier: 
                keyid:40:FA:6F:B4:75:ED:A5:98:90:09:C1:4C:46:41:77:2B:E9:19:98:A8
                DirName:/CN=Easy-RSA CA
                serial:3F:90:F5:95:20:0C:19:8D:91:81:72:D4:81:7B:92:A9:03:EB:DC:F6
            X509v3 Extended Key Usage: 
                TLS Web Client Authentication
            X509v3 Key Usage: 
                Digital Signature
    Signature Algorithm: sha256WithRSAEncryption
    Signature Value:
        52:05:7f:b1:40:8f:dc:db:af:40:5a:e2:4d:b9:85:93:8e:d9:
        70:0a:75:42:08:a0:e0:a9:10:6f:b6:eb:34:1b:39:e4:88:2f:
        b3:bd:48:b8:29:7f:dd:b5:fd:ca:f7:77:c0:38:5e:c6:bd:14:
        ec:e9:c8:6b:4c:bb:54:cc:f5:52:0a:df:a7:5f:70:4f:98:1b:
        b0:30:6a:f9:a1:0e:0e:50:76:a2:63:5a:49:0d:bb:42:2f:75:
        c4:73:62:7c:63:96:95:32:7a:7f:cb:dc:64:d9:9c:3e:b8:2c:
        d0:bb:b9:53:d8:73:dd:ca:ad:63:5f:2e:90:ca:c9:c3:13:5b:
        32:cc:e9:ee:b0:14:ee:06:2b:fa:03:a6:81:e1:4c:d4:4f:40:
        a3:7c:f3:d0:d8:db:92:80:bf:f3:47:ff:f2:f0:5b:3f:11:f1:
        95:51:f6:ae:f8:69:65:d6:11:96:64:8e:cb:fc:f5:71:23:72:
        59:26:85:35:98:b1:fd:b1:c8:65:7d:47:a6:42:c7:18:fe:ba:
        67:9a:9a:37:60:16:ad:f3:dd:f7:4e:64:8a:b1:af:ee:ca:ee:
        66:65:7f:ce:7b:f8:52:3c:e2:4c:39:0f:44:27:e1:23:e3:a2:
        13:35:f9:84:e9:d1:43:d1:15:b6:ce:2c:5c:c9:2a:bf:23:21:
        04:9f:ce:3f
-----BEGIN CERTIFICATE-----
MIIDbjCCAlagAwIBAgIQElfIlX4VObseJ0Zf/ZiBYjANBgkqhkiG9w0BAQsFADAW
MRQwEgYDVQQDDAtFYXN5LVJTQSBDQTAeFw0yNDA1MTUwMjE1NDVaFw0zNDA1MTMw
MjE1NDVaMCsxKTAnBgNVBAMMIDIxMjMyZjI5N2E1N2E1YTc0Mzg5NGEwZTRhODAx
ZmMzMIIBIjANBgkqhkiG9w0BAQEFAAOCAQ8AMIIBCgKCAQEAz6KyVRbx90M3wXkQ
yFKwbGlyRl5+rtHgQ2J0cdpZbV8ImoIYOBAGah3DNsr1nb0LlEOvXQ7IIlgoJ+E7
/iR6j1kPMuBGzp9ZzsSlTVinjDymuET80qR1Mltv7KBSOy8FbjgbzN3yVMO2ElvW
tPBEBoGdjfQlB2Q7s/TI6+gbi78Fc33A8Xgk8tCabT+GbCPTuiXgJNrSBfBygMDC
MjrDC+zwYNVOxrfwJKteXjHQc0l/0EdW4dlC+mKWF4Yf07OX9ZMymWzaKEdimfcp
x4H/Y6kJQN1YnlsaRi+W1T28fvbbJbTqDqpCPMRH1pw4/NuQJurlC1qei+ib79Gf
C0wsjwIDAQABo4GiMIGfMAkGA1UdEwQCMAAwHQYDVR0OBBYEFO2DZ2XpauSCu2HA
t08RXQkEFeVrMFEGA1UdIwRKMEiAFED6b7R17aWYkAnBTEZBdyvpGZiooRqkGDAW
MRQwEgYDVQQDDAtFYXN5LVJTQSBDQYIUP5D1lSAMGY2RgXLUgXuSqQPr3PYwEwYD
VR0lBAwwCgYIKwYBBQUHAwIwCwYDVR0PBAQDAgeAMA0GCSqGSIb3DQEBCwUAA4IB
AQBSBX+xQI/c269AWuJNuYWTjtlwCnVCCKDgqRBvtus0GznkiC+zvUi4KX/dtf3K
93fAOF7GvRTs6chrTLtUzPVSCt+nX3BPmBuwMGr5oQ4OUHaiY1pJDbtCL3XEc2J8
Y5aVMnp/y9xk2Zw+uCzQu7lT2HPdyq1jXy6QysnDE1syzOnusBTuBiv6A6aB4UzU
T0CjfPPQ2NuSgL/zR//y8Fs/EfGVUfau+Gll1hGWZI7L/PVxI3JZJoU1mLH9schl
fUemQscY/rpnmpo3YBat8933TmSKsa/uyu5mZX/Oe/hSPOJMOQ9EJ+Ej46ITNfmE
6dFD0RW2zixcySq/IyEEn84/
-----END CERTIFICATE-----
