Certificate:
    Data:
        Version: 3 (0x2)
        Serial Number:
            13:04:e6:fe:9b:d2:ba:35:11:ad:0e:e6:a6:26:d2:e3
        Signature Algorithm: sha256WithRSAEncryption
        Issuer: CN=Easy-RSA CA
        Validity
            Not Before: May 11 04:21:44 2024 GMT
            Not After : May  9 04:21:44 2034 GMT
        Subject: CN=bcc06b38518eb4a178932f8b627b29cd
        Subject Public Key Info:
            Public Key Algorithm: rsaEncryption
                RSA Public-Key: (2048 bit)
                Modulus:
                    00:a4:d7:ab:37:42:51:f6:60:cc:06:c4:e6:89:46:
                    74:59:56:3f:02:27:4d:84:22:ad:78:5b:37:2e:d9:
                    0b:a3:e9:6e:cf:2d:d6:2a:c6:0a:37:36:5c:e3:f1:
                    11:38:d4:33:33:b7:95:ec:fb:2c:87:5b:8a:89:f4:
                    7f:cb:46:30:07:7d:03:6e:d1:10:36:70:49:f4:07:
                    b5:45:c2:dc:1b:b3:2d:45:83:38:16:b2:07:3c:d9:
                    1b:cc:2f:dc:50:ee:73:7f:69:5a:f6:40:2a:11:50:
                    be:4c:3d:fe:b7:68:a7:ec:62:0e:f5:b1:51:ff:89:
                    7b:46:6f:bf:62:ae:65:e0:ff:d4:de:b1:b4:18:e5:
                    3d:67:6c:ef:32:9c:05:15:a4:27:e5:04:ca:d4:c7:
                    84:a9:47:78:08:1c:cd:6f:22:84:43:24:cf:c5:7b:
                    1c:ce:59:6a:c8:c7:e5:82:93:69:9f:15:81:20:52:
                    45:0a:e0:80:cf:0e:68:fe:7c:01:ab:2c:e6:06:67:
                    8a:64:df:4a:68:5d:f4:d6:15:82:41:93:24:f3:10:
                    f9:0b:50:7b:90:09:bc:2f:aa:f9:8f:11:00:d7:c0:
                    69:4c:5f:08:7a:a5:5a:f2:62:51:d5:40:ad:b9:40:
                    79:57:60:d0:fb:fa:f8:2f:29:d0:1c:1f:9a:ff:a5:
                    36:99
                Exponent: 65537 (0x10001)
        X509v3 extensions:
            X509v3 Basic Constraints: 
                CA:FALSE
            X509v3 Subject Key Identifier: 
                99:63:E0:63:82:F5:D3:36:75:64:9F:42:C4:37:70:84:4A:CA:40:1E
            X509v3 Authority Key Identifier: 
                keyid:40:FA:6F:B4:75:ED:A5:98:90:09:C1:4C:46:41:77:2B:E9:19:98:A8
                DirName:/CN=Easy-RSA CA
                serial:3F:90:F5:95:20:0C:19:8D:91:81:72:D4:81:7B:92:A9:03:EB:DC:F6

            X509v3 Extended Key Usage: 
                TLS Web Client Authentication
            X509v3 Key Usage: 
                Digital Signature
    Signature Algorithm: sha256WithRSAEncryption
         8b:7c:3d:36:ca:6f:dd:cc:90:a6:1b:c7:e0:00:26:57:5b:5c:
         21:8d:f2:5b:fd:b9:ed:77:a8:b1:62:f8:ca:93:b3:72:b2:49:
         d3:f0:b6:41:6b:9d:8a:4b:13:47:35:af:2a:ea:a5:4a:b8:e4:
         b2:07:55:76:8d:39:2a:0b:d1:ab:ac:08:27:98:49:7e:b5:1d:
         72:eb:6b:e2:f8:5b:6b:11:fc:2d:ef:d1:2b:69:39:6c:e1:43:
         f2:3e:fe:a0:95:2e:3c:fd:20:36:b7:58:8a:db:15:e2:28:b4:
         a8:e4:9a:4d:1e:f6:2e:ec:fa:51:75:6e:c0:7c:db:08:cd:93:
         41:48:cc:cd:a6:d3:b9:b1:ea:6d:b7:f0:63:65:41:53:f7:68:
         8d:cc:8e:a0:ae:91:22:fa:dd:44:86:40:73:6d:8c:02:d2:9b:
         03:68:e2:e7:24:85:7e:ee:05:59:ff:ef:1c:12:42:21:47:25:
         ca:0c:84:13:d0:95:ea:b5:d3:99:64:63:bd:bc:6a:10:cb:ed:
         22:47:93:98:36:e3:19:ea:50:a2:50:53:59:a6:07:63:b9:34:
         26:2d:eb:1b:e2:5e:c2:b6:2a:09:fc:2b:67:14:57:ce:91:21:
         ab:50:69:37:4c:c8:3e:2f:10:f3:d9:43:00:fb:62:25:c1:b7:
         a9:f3:56:77
-----BEGIN CERTIFICATE-----
MIIDbjCCAlagAwIBAgIQEwTm/pvSujURrQ7mpibS4zANBgkqhkiG9w0BAQsFADAW
MRQwEgYDVQQDDAtFYXN5LVJTQSBDQTAeFw0yNDA1MTEwNDIxNDRaFw0zNDA1MDkw
NDIxNDRaMCsxKTAnBgNVBAMMIGJjYzA2YjM4NTE4ZWI0YTE3ODkzMmY4YjYyN2Iy
OWNkMIIBIjANBgkqhkiG9w0BAQEFAAOCAQ8AMIIBCgKCAQEApNerN0JR9mDMBsTm
iUZ0WVY/AidNhCKteFs3LtkLo+luzy3WKsYKNzZc4/ERONQzM7eV7Pssh1uKifR/
y0YwB30DbtEQNnBJ9Ae1RcLcG7MtRYM4FrIHPNkbzC/cUO5zf2la9kAqEVC+TD3+
t2in7GIO9bFR/4l7Rm+/Yq5l4P/U3rG0GOU9Z2zvMpwFFaQn5QTK1MeEqUd4CBzN
byKEQyTPxXsczllqyMflgpNpnxWBIFJFCuCAzw5o/nwBqyzmBmeKZN9KaF301hWC
QZMk8xD5C1B7kAm8L6r5jxEA18BpTF8IeqVa8mJR1UCtuUB5V2DQ+/r4LynQHB+a
/6U2mQIDAQABo4GiMIGfMAkGA1UdEwQCMAAwHQYDVR0OBBYEFJlj4GOC9dM2dWSf
QsQ3cIRKykAeMFEGA1UdIwRKMEiAFED6b7R17aWYkAnBTEZBdyvpGZiooRqkGDAW
MRQwEgYDVQQDDAtFYXN5LVJTQSBDQYIUP5D1lSAMGY2RgXLUgXuSqQPr3PYwEwYD
VR0lBAwwCgYIKwYBBQUHAwIwCwYDVR0PBAQDAgeAMA0GCSqGSIb3DQEBCwUAA4IB
AQCLfD02ym/dzJCmG8fgACZXW1whjfJb/bntd6ixYvjKk7NysknT8LZBa52KSxNH
Na8q6qVKuOSyB1V2jTkqC9GrrAgnmEl+tR1y62vi+FtrEfwt79EraTls4UPyPv6g
lS48/SA2t1iK2xXiKLSo5JpNHvYu7PpRdW7AfNsIzZNBSMzNptO5septt/BjZUFT
92iNzI6grpEi+t1EhkBzbYwC0psDaOLnJIV+7gVZ/+8cEkIhRyXKDIQT0JXqtdOZ
ZGO9vGoQy+0iR5OYNuMZ6lCiUFNZpgdjuTQmLesb4l7CtioJ/CtnFFfOkSGrUGk3
TMg+LxDz2UMA+2Ilwbep81Z3
-----END CERTIFICATE-----
