Certificate:
    Data:
        Version: 3 (0x2)
        Serial Number:
            15:85:1c:0f:4c:f9:50:6b:97:4c:fa:31:13:aa:1c:31
        Signature Algorithm: sha256WithRSAEncryption
        Issuer: CN=Easy-RSA CA
        Validity
            Not Before: May 14 12:03:02 2024 GMT
            Not After : May 12 12:03:02 2034 GMT
        Subject: CN=test
        Subject Public Key Info:
            Public Key Algorithm: rsaEncryption
                Public-Key: (2048 bit)
                Modulus:
                    00:b3:d0:cd:42:2d:ee:a8:fb:d8:6f:61:17:45:eb:
                    87:1b:28:10:24:48:0a:8d:e9:05:37:1f:8e:14:21:
                    40:e2:fc:24:b8:cf:a3:8f:33:bf:be:59:5a:13:b8:
                    04:77:6d:9f:d9:04:86:a9:7f:67:db:25:ff:a2:ec:
                    ac:67:a8:96:fa:90:97:ec:72:5a:e1:bd:84:20:f2:
                    2f:de:bd:91:da:23:fe:ec:9a:7d:47:90:08:8f:d7:
                    a0:83:3b:17:b5:f2:e1:0f:05:d5:b5:ea:57:85:d2:
                    56:15:d3:e1:8e:88:a0:0e:59:b4:e3:48:81:6d:9e:
                    77:eb:fe:74:7c:15:1c:bf:04:a3:a1:e0:cd:8e:52:
                    42:9f:05:21:1c:d1:db:f5:fe:57:8d:0c:5f:76:bd:
                    94:b9:08:14:0e:d7:dd:db:0b:6e:cf:66:af:6e:2e:
                    e5:4b:fb:81:ea:ca:5c:63:b0:01:e8:63:b4:72:e2:
                    43:82:3c:b3:7d:bf:01:4c:14:83:47:e5:27:a2:c5:
                    86:a2:ee:da:f9:17:57:72:31:50:cd:95:66:b7:8b:
                    63:18:11:db:8b:66:ab:39:8d:b0:fa:da:1b:4d:a1:
                    78:1d:1c:45:80:46:9c:4f:11:5a:d6:2c:03:71:74:
                    c0:60:80:02:d9:34:09:61:99:c7:3f:ba:7f:e4:47:
                    17:91
                Exponent: 65537 (0x10001)
        X509v3 extensions:
            X509v3 Basic Constraints: 
                CA:FALSE
            X509v3 Subject Key Identifier: 
                4F:87:F4:91:9A:BF:E6:12:91:68:E9:CB:0F:8A:44:A2:25:B2:17:F9
            X509v3 Authority Key Identifier: 
                keyid:40:FA:6F:B4:75:ED:A5:98:90:09:C1:4C:46:41:77:2B:E9:19:98:A8
                DirName:/CN=Easy-RSA CA
                serial:3F:90:F5:95:20:0C:19:8D:91:81:72:D4:81:7B:92:A9:03:EB:DC:F6
            X509v3 Extended Key Usage: 
                TLS Web Client Authentication
            X509v3 Key Usage: 
                Digital Signature
    Signature Algorithm: sha256WithRSAEncryption
    Signature Value:
        3c:39:54:52:d1:6f:42:c1:fb:b3:dd:22:3c:f7:5e:c7:9f:98:
        3e:7a:3a:60:e6:23:f5:54:b6:17:6f:57:62:16:ee:1d:06:9c:
        01:5a:eb:84:f6:99:3a:79:91:5b:91:e6:9d:5c:62:7e:27:01:
        39:79:44:6d:0a:ab:b6:03:8e:b9:e7:b3:6b:cb:c5:e5:4c:98:
        ef:2a:57:a9:6f:ce:07:da:8b:32:64:8b:d9:29:b2:03:99:05:
        f4:ce:d3:6d:48:b3:75:e3:43:35:3d:4c:db:87:1d:35:3e:25:
        a8:ab:8c:94:ce:2f:c0:ad:cf:ed:78:f8:a9:34:43:3f:4d:43:
        43:29:8c:28:dd:bb:5e:0d:40:4c:fa:e1:88:d9:fe:94:56:5d:
        a9:89:1f:51:37:55:89:e6:7c:80:fc:ce:6a:b6:46:8c:81:09:
        a1:bf:dc:da:05:5f:a0:51:33:22:18:60:6f:68:7f:0e:84:a8:
        86:df:8d:61:6a:b9:4b:ab:8b:f2:27:9b:b5:d3:57:e0:21:a7:
        97:67:4f:2c:9f:78:c4:2e:d8:a4:15:63:99:78:52:99:f0:5c:
        94:d3:4d:68:98:eb:4a:77:87:64:94:31:1b:48:7c:4b:bf:5b:
        c4:23:70:f9:f8:b3:44:00:b5:7e:45:fa:19:ce:12:ab:27:cc:
        3d:4a:9e:d7
-----BEGIN CERTIFICATE-----
MIIDUjCCAjqgAwIBAgIQFYUcD0z5UGuXTPoxE6ocMTANBgkqhkiG9w0BAQsFADAW
MRQwEgYDVQQDDAtFYXN5LVJTQSBDQTAeFw0yNDA1MTQxMjAzMDJaFw0zNDA1MTIx
MjAzMDJaMA8xDTALBgNVBAMMBHRlc3QwggEiMA0GCSqGSIb3DQEBAQUAA4IBDwAw
ggEKAoIBAQCz0M1CLe6o+9hvYRdF64cbKBAkSAqN6QU3H44UIUDi/CS4z6OPM7++
WVoTuAR3bZ/ZBIapf2fbJf+i7KxnqJb6kJfsclrhvYQg8i/evZHaI/7smn1HkAiP
16CDOxe18uEPBdW16leF0lYV0+GOiKAOWbTjSIFtnnfr/nR8FRy/BKOh4M2OUkKf
BSEc0dv1/leNDF92vZS5CBQO193bC27PZq9uLuVL+4HqylxjsAHoY7Ry4kOCPLN9
vwFMFINH5SeixYai7tr5F1dyMVDNlWa3i2MYEduLZqs5jbD62htNoXgdHEWARpxP
EVrWLANxdMBggALZNAlhmcc/un/kRxeRAgMBAAGjgaIwgZ8wCQYDVR0TBAIwADAd
BgNVHQ4EFgQUT4f0kZq/5hKRaOnLD4pEoiWyF/kwUQYDVR0jBEowSIAUQPpvtHXt
pZiQCcFMRkF3K+kZmKihGqQYMBYxFDASBgNVBAMMC0Vhc3ktUlNBIENBghQ/kPWV
IAwZjZGBctSBe5KpA+vc9jATBgNVHSUEDDAKBggrBgEFBQcDAjALBgNVHQ8EBAMC
B4AwDQYJKoZIhvcNAQELBQADggEBADw5VFLRb0LB+7PdIjz3XsefmD56OmDmI/VU
thdvV2IW7h0GnAFa64T2mTp5kVuR5p1cYn4nATl5RG0Kq7YDjrnns2vLxeVMmO8q
V6lvzgfaizJki9kpsgOZBfTO021Is3XjQzU9TNuHHTU+JairjJTOL8Ctz+14+Kk0
Qz9NQ0MpjCjdu14NQEz64YjZ/pRWXamJH1E3VYnmfID8zmq2RoyBCaG/3NoFX6BR
MyIYYG9ofw6EqIbfjWFquUuri/Inm7XTV+Ahp5dnTyyfeMQu2KQVY5l4UpnwXJTT
TWiY60p3h2SUMRtIfEu/W8QjcPn4s0QAtX5F+hnOEqsnzD1Kntc=
-----END CERTIFICATE-----
