Certificate:
    Data:
        Version: 3 (0x2)
        Serial Number:
            1d:25:8e:57:e9:12:a9:a1:a6:f5:5a:96:2c:8f:35:e6
        Signature Algorithm: sha256WithRSAEncryption
        Issuer: CN=Easy-RSA CA
        Validity
            Not Before: May  6 07:27:06 2024 GMT
            Not After : May  4 07:27:06 2034 GMT
        Subject: CN=lx_zhiyuan_01
        Subject Public Key Info:
            Public Key Algorithm: rsaEncryption
                RSA Public-Key: (2048 bit)
                Modulus:
                    00:d1:4a:db:61:5a:e1:1e:57:6d:96:fc:23:f6:3c:
                    8e:da:9c:d8:9d:fd:2e:92:3f:4f:79:76:66:08:5d:
                    f9:43:98:2f:de:f2:d5:cd:a8:75:24:b9:7f:6f:97:
                    f3:a8:6b:cb:f6:cf:51:79:87:8f:08:cc:21:8f:61:
                    03:2b:28:ce:e7:d4:2a:dc:ad:65:2d:8b:b6:ea:1a:
                    0e:8e:36:f1:0c:80:54:fe:0c:8b:7c:df:cf:0e:ee:
                    f7:07:f1:4b:bd:6b:7a:fa:75:3a:e1:ff:c8:88:d0:
                    19:65:5b:3d:ea:04:86:a9:ef:89:9b:ab:c4:11:22:
                    2d:8a:d2:34:e5:dc:f7:62:e3:39:c3:d5:a3:fd:f7:
                    d9:a1:7a:43:99:8b:84:89:d6:20:bf:0b:6b:27:a2:
                    b2:53:9b:51:1e:4c:58:83:13:a0:a9:8a:34:a7:ea:
                    2e:df:d5:97:9c:c4:47:a4:3f:f7:f6:3a:ce:9a:aa:
                    fc:9a:59:02:1f:2f:64:c5:56:aa:3e:25:a2:05:ef:
                    7f:7c:64:a1:fb:43:03:3f:dc:7a:5c:8d:5a:57:8a:
                    8c:ca:bf:be:ea:1e:65:db:15:90:54:56:24:c5:38:
                    cb:3d:ac:c8:98:74:e6:88:33:c7:3d:62:0c:f5:63:
                    6e:e9:f7:03:8c:a8:c8:7c:ac:a0:a0:99:6f:2f:5a:
                    7c:51
                Exponent: 65537 (0x10001)
        X509v3 extensions:
            X509v3 Basic Constraints: 
                CA:FALSE
            X509v3 Subject Key Identifier: 
                D5:68:1E:C9:1D:93:B8:FB:7C:E8:AC:9D:12:E9:38:40:93:B4:1D:EF
            X509v3 Authority Key Identifier: 
                keyid:40:FA:6F:B4:75:ED:A5:98:90:09:C1:4C:46:41:77:2B:E9:19:98:A8
                DirName:/CN=Easy-RSA CA
                serial:3F:90:F5:95:20:0C:19:8D:91:81:72:D4:81:7B:92:A9:03:EB:DC:F6

            X509v3 Extended Key Usage: 
                TLS Web Client Authentication
            X509v3 Key Usage: 
                Digital Signature
    Signature Algorithm: sha256WithRSAEncryption
         ca:68:ac:8c:4a:d8:89:4a:95:24:83:18:75:19:e4:65:28:3c:
         e4:c3:2c:46:bf:00:ac:13:3b:0c:1e:b9:e8:ea:a8:71:e6:79:
         19:1e:af:10:68:9f:83:78:b6:4d:aa:9a:7f:68:67:db:14:24:
         ea:63:ee:1b:6b:49:d1:fd:95:8b:7d:91:28:2b:fe:9e:98:1e:
         cc:60:da:7b:1d:61:d0:24:f0:24:93:64:3d:4c:b8:9e:60:3e:
         4a:b0:3e:fb:ac:56:c4:20:09:03:65:e4:b8:64:1d:52:e5:8b:
         1d:2c:f9:e3:d5:80:bb:30:77:7a:af:d5:98:3f:5e:e7:e6:2e:
         b5:2a:10:0d:84:5d:45:25:e5:11:a0:10:ca:84:71:44:0c:c6:
         02:6d:5b:5b:4f:17:15:56:b2:45:7e:eb:b2:84:fb:b6:42:a6:
         82:47:97:a5:60:85:92:5b:a6:60:f1:3d:bf:23:77:9f:9e:14:
         26:48:80:36:5e:f3:24:5e:c4:ad:2a:5f:e5:3d:be:e3:d7:2b:
         ce:62:ed:5d:be:80:47:48:63:8d:88:d5:43:86:f8:00:02:94:
         41:3a:d2:bc:66:e5:8e:04:65:f5:91:ae:43:0b:ad:8c:0e:38:
         12:62:8c:9b:fa:30:0d:a7:39:5c:f8:73:7f:98:0a:1c:79:8c:
         49:d9:26:a7
-----BEGIN CERTIFICATE-----
MIIDWzCCAkOgAwIBAgIQHSWOV+kSqaGm9VqWLI815jANBgkqhkiG9w0BAQsFADAW
MRQwEgYDVQQDDAtFYXN5LVJTQSBDQTAeFw0yNDA1MDYwNzI3MDZaFw0zNDA1MDQw
NzI3MDZaMBgxFjAUBgNVBAMMDWx4X3poaXl1YW5fMDEwggEiMA0GCSqGSIb3DQEB
AQUAA4IBDwAwggEKAoIBAQDRStthWuEeV22W/CP2PI7anNid/S6SP095dmYIXflD
mC/e8tXNqHUkuX9vl/Ooa8v2z1F5h48IzCGPYQMrKM7n1CrcrWUti7bqGg6ONvEM
gFT+DIt8388O7vcH8Uu9a3r6dTrh/8iI0BllWz3qBIap74mbq8QRIi2K0jTl3Pdi
4znD1aP999mhekOZi4SJ1iC/C2snorJTm1EeTFiDE6CpijSn6i7f1ZecxEekP/f2
Os6aqvyaWQIfL2TFVqo+JaIF7398ZKH7QwM/3HpcjVpXiozKv77qHmXbFZBUViTF
OMs9rMiYdOaIM8c9Ygz1Y27p9wOMqMh8rKCgmW8vWnxRAgMBAAGjgaIwgZ8wCQYD
VR0TBAIwADAdBgNVHQ4EFgQU1WgeyR2TuPt86KydEuk4QJO0He8wUQYDVR0jBEow
SIAUQPpvtHXtpZiQCcFMRkF3K+kZmKihGqQYMBYxFDASBgNVBAMMC0Vhc3ktUlNB
IENBghQ/kPWVIAwZjZGBctSBe5KpA+vc9jATBgNVHSUEDDAKBggrBgEFBQcDAjAL
BgNVHQ8EBAMCB4AwDQYJKoZIhvcNAQELBQADggEBAMporIxK2IlKlSSDGHUZ5GUo
POTDLEa/AKwTOwweuejqqHHmeRkerxBon4N4tk2qmn9oZ9sUJOpj7htrSdH9lYt9
kSgr/p6YHsxg2nsdYdAk8CSTZD1MuJ5gPkqwPvusVsQgCQNl5LhkHVLlix0s+ePV
gLswd3qv1Zg/XufmLrUqEA2EXUUl5RGgEMqEcUQMxgJtW1tPFxVWskV+67KE+7ZC
poJHl6VghZJbpmDxPb8jd5+eFCZIgDZe8yRexK0qX+U9vuPXK85i7V2+gEdIY42I
1UOG+AAClEE60rxm5Y4EZfWRrkMLrYwOOBJijJv6MA2nOVz4c3+YChx5jEnZJqc=
-----END CERTIFICATE-----
