Certificate:
    Data:
        Version: 3 (0x2)
        Serial Number:
            25:68:bb:e3:ba:fa:7d:2a:d4:b5:2f:f3:d1:96:d2:11
        Signature Algorithm: sha256WithRSAEncryption
        Issuer: CN=Easy-RSA CA
        Validity
            Not Before: May  8 13:28:57 2024 GMT
            Not After : May  6 13:28:57 2034 GMT
        Subject: CN=239f5dff7b474562f4b6524bf032472e
        Subject Public Key Info:
            Public Key Algorithm: rsaEncryption
                RSA Public-Key: (2048 bit)
                Modulus:
                    00:b5:97:34:f1:f4:d1:90:df:1a:97:22:9f:a9:d9:
                    86:95:0b:89:76:f3:5b:ab:41:12:ba:0e:96:3e:30:
                    57:56:c7:a2:0d:98:67:59:a7:d2:df:b9:4b:67:02:
                    d7:3d:f2:11:b8:ed:15:dc:bf:9f:2a:98:c8:f5:54:
                    7f:6b:53:cc:e4:be:2d:33:42:94:03:8d:51:88:b4:
                    2e:6c:0d:08:2b:ab:e4:07:5d:20:ec:85:43:ae:a2:
                    78:f1:9e:b0:2e:0d:c1:ad:5c:eb:25:00:b9:4b:d9:
                    fe:f1:d0:d6:4e:00:3a:4b:de:1d:d6:cf:d1:e2:6f:
                    75:e4:ed:78:b3:55:cc:b6:22:6c:d6:93:c6:16:60:
                    2a:13:bd:7d:82:f5:ea:31:84:ed:15:90:c1:4c:27:
                    ec:72:81:dd:3a:90:7a:b5:a7:cb:9b:d0:22:d9:34:
                    83:e9:51:c3:eb:c3:3f:d9:4c:8e:06:b0:74:b0:56:
                    b7:e2:15:96:17:91:76:7d:b5:65:88:b8:2d:8c:31:
                    15:81:68:d0:ef:f1:8e:50:bc:17:04:63:98:c9:23:
                    81:95:90:01:29:11:f7:28:62:75:8b:74:6d:39:ae:
                    34:8a:0b:aa:3a:18:a1:ad:f9:7a:10:18:e7:81:a6:
                    d4:6a:ee:31:57:37:77:14:5f:56:41:70:11:b6:20:
                    0e:03
                Exponent: 65537 (0x10001)
        X509v3 extensions:
            X509v3 Basic Constraints: 
                CA:FALSE
            X509v3 Subject Key Identifier: 
                48:44:90:6B:DD:07:75:B7:14:E3:BA:F1:4D:20:A6:70:08:24:88:4E
            X509v3 Authority Key Identifier: 
                keyid:40:FA:6F:B4:75:ED:A5:98:90:09:C1:4C:46:41:77:2B:E9:19:98:A8
                DirName:/CN=Easy-RSA CA
                serial:3F:90:F5:95:20:0C:19:8D:91:81:72:D4:81:7B:92:A9:03:EB:DC:F6

            X509v3 Extended Key Usage: 
                TLS Web Client Authentication
            X509v3 Key Usage: 
                Digital Signature
    Signature Algorithm: sha256WithRSAEncryption
         13:0f:bc:83:a2:88:be:81:63:63:d5:0c:de:cb:92:e9:72:96:
         62:e4:66:39:48:28:77:3f:e5:bb:80:55:d8:36:19:7e:5a:5f:
         b1:0d:96:31:e6:b4:fe:2e:83:54:de:61:19:78:05:18:5f:cd:
         cb:79:b2:5e:a7:41:c9:5e:e9:a3:33:7f:39:2c:93:fa:0e:7f:
         4b:7c:c5:18:57:4f:ba:95:92:f3:ff:bb:c5:bc:dd:d5:aa:c3:
         80:00:a0:28:d0:a4:e9:2c:f0:d1:26:be:ad:18:33:a0:3d:2f:
         8f:f9:a6:22:b1:8b:fa:10:37:2d:6a:60:cf:87:dc:1a:14:7f:
         ca:b2:2f:47:fb:e8:50:ef:3c:e4:d5:75:3a:c8:19:69:69:13:
         0f:b6:1e:1b:01:cf:7c:0f:31:81:f3:3e:a6:54:ec:d3:f3:3f:
         d5:2c:e9:65:d6:ba:a8:0c:71:07:df:1e:bc:5f:05:9a:09:77:
         80:be:a1:35:44:b7:e1:6e:5b:f2:d1:14:2c:3e:ef:4d:02:8d:
         91:14:a4:fd:ee:78:11:34:e6:93:70:a1:5e:37:fc:02:c7:5e:
         b0:da:d8:10:8a:65:fc:61:06:ca:8a:dd:1a:3d:89:8a:e4:c9:
         c4:b7:8a:b1:a9:91:35:9c:bc:90:8c:62:ac:5c:4c:eb:d0:4d:
         28:76:8b:c7
-----BEGIN CERTIFICATE-----
MIIDbjCCAlagAwIBAgIQJWi747r6fSrUtS/z0ZbSETANBgkqhkiG9w0BAQsFADAW
MRQwEgYDVQQDDAtFYXN5LVJTQSBDQTAeFw0yNDA1MDgxMzI4NTdaFw0zNDA1MDYx
MzI4NTdaMCsxKTAnBgNVBAMMIDIzOWY1ZGZmN2I0NzQ1NjJmNGI2NTI0YmYwMzI0
NzJlMIIBIjANBgkqhkiG9w0BAQEFAAOCAQ8AMIIBCgKCAQEAtZc08fTRkN8alyKf
qdmGlQuJdvNbq0ESug6WPjBXVseiDZhnWafS37lLZwLXPfIRuO0V3L+fKpjI9VR/
a1PM5L4tM0KUA41RiLQubA0IK6vkB10g7IVDrqJ48Z6wLg3BrVzrJQC5S9n+8dDW
TgA6S94d1s/R4m915O14s1XMtiJs1pPGFmAqE719gvXqMYTtFZDBTCfscoHdOpB6
tafLm9Ai2TSD6VHD68M/2UyOBrB0sFa34hWWF5F2fbVliLgtjDEVgWjQ7/GOULwX
BGOYySOBlZABKRH3KGJ1i3RtOa40iguqOhihrfl6EBjngabUau4xVzd3FF9WQXAR
tiAOAwIDAQABo4GiMIGfMAkGA1UdEwQCMAAwHQYDVR0OBBYEFEhEkGvdB3W3FOO6
8U0gpnAIJIhOMFEGA1UdIwRKMEiAFED6b7R17aWYkAnBTEZBdyvpGZiooRqkGDAW
MRQwEgYDVQQDDAtFYXN5LVJTQSBDQYIUP5D1lSAMGY2RgXLUgXuSqQPr3PYwEwYD
VR0lBAwwCgYIKwYBBQUHAwIwCwYDVR0PBAQDAgeAMA0GCSqGSIb3DQEBCwUAA4IB
AQATD7yDooi+gWNj1Qzey5LpcpZi5GY5SCh3P+W7gFXYNhl+Wl+xDZYx5rT+LoNU
3mEZeAUYX83LebJep0HJXumjM385LJP6Dn9LfMUYV0+6lZLz/7vFvN3VqsOAAKAo
0KTpLPDRJr6tGDOgPS+P+aYisYv6EDctamDPh9waFH/Ksi9H++hQ7zzk1XU6yBlp
aRMPth4bAc98DzGB8z6mVOzT8z/VLOll1rqoDHEH3x68XwWaCXeAvqE1RLfhblvy
0RQsPu9NAo2RFKT97ngRNOaTcKFeN/wCx16w2tgQimX8YQbKit0aPYmK5MnEt4qx
qZE1nLyQjGKsXEzr0E0odovH
-----END CERTIFICATE-----
