Certificate:
    Data:
        Version: 3 (0x2)
        Serial Number:
            26:9d:d9:fc:15:d7:b2:65:fd:95:9c:21:cf:0b:31:27
        Signature Algorithm: sha256WithRSAEncryption
        Issuer: CN=Easy-RSA CA
        Validity
            Not Before: May 14 09:44:01 2024 GMT
            Not After : May 12 09:44:01 2034 GMT
        Subject: CN=3161966090e7912385a5aef7942e851f
        Subject Public Key Info:
            Public Key Algorithm: rsaEncryption
                RSA Public-Key: (2048 bit)
                Modulus:
                    00:d1:82:89:c4:0f:00:10:41:60:90:df:16:39:36:
                    72:a4:ab:9c:61:14:0f:5a:72:df:2f:53:7f:b9:0a:
                    8a:7b:79:61:70:34:71:68:45:a8:c1:b1:c1:80:d0:
                    d0:ec:5b:70:71:00:1c:c6:d0:48:e3:f8:b4:d2:bf:
                    1d:d3:f0:06:d7:a3:2e:3c:f1:e2:7f:61:14:d7:0e:
                    fb:78:20:4a:9f:f6:8f:58:df:62:99:1b:f1:5b:61:
                    3d:74:32:85:a3:62:e8:a7:b1:80:b8:c3:cc:64:32:
                    6d:f6:ee:82:c9:fa:fc:0b:aa:fd:4b:9b:09:b9:5d:
                    2f:32:21:8e:f9:1c:94:c1:4b:ef:61:60:60:6b:57:
                    a4:c3:8c:ad:84:44:20:7e:8f:88:c9:c5:72:88:56:
                    27:e2:7d:cd:ab:95:69:ae:6d:4b:e4:4c:24:fb:6a:
                    4e:13:a2:b9:0f:8c:f1:d9:4f:07:25:0d:0b:46:8f:
                    f8:ae:d5:76:d6:1b:c4:14:a8:41:42:3a:8a:6c:98:
                    ef:73:a4:a8:cc:22:5b:c0:6a:4c:34:ac:0c:af:f6:
                    21:e9:26:2a:a6:65:63:9c:8b:f7:13:20:6c:f9:b9:
                    35:f9:5c:cd:d2:8f:d3:5c:4b:6a:b2:6a:c0:bc:f5:
                    01:e2:03:10:dd:60:08:02:16:25:75:33:24:92:07:
                    3a:51
                Exponent: 65537 (0x10001)
        X509v3 extensions:
            X509v3 Basic Constraints: 
                CA:FALSE
            X509v3 Subject Key Identifier: 
                00:AF:33:6F:88:D3:C4:4B:CF:24:91:E0:3F:B5:B2:96:AD:65:59:BC
            X509v3 Authority Key Identifier: 
                keyid:40:FA:6F:B4:75:ED:A5:98:90:09:C1:4C:46:41:77:2B:E9:19:98:A8
                DirName:/CN=Easy-RSA CA
                serial:3F:90:F5:95:20:0C:19:8D:91:81:72:D4:81:7B:92:A9:03:EB:DC:F6

            X509v3 Extended Key Usage: 
                TLS Web Client Authentication
            X509v3 Key Usage: 
                Digital Signature
    Signature Algorithm: sha256WithRSAEncryption
         54:e8:3c:59:06:bd:23:3a:df:19:ae:e2:3d:21:6d:d6:f0:0e:
         8f:4e:ba:92:15:e3:c7:e7:6c:9b:2e:f0:fe:2d:c6:17:ea:97:
         01:93:70:02:b3:a6:2c:76:f9:f0:be:e5:c2:ad:22:84:17:13:
         27:12:9a:5f:85:20:6f:4b:3c:30:8d:ec:d8:db:9d:9e:98:d3:
         73:4f:34:18:c6:f5:97:4a:10:18:ab:db:70:0d:ef:2a:cc:bf:
         0e:04:3f:82:bc:bd:bf:b5:d2:5b:82:79:74:d8:56:9e:a8:50:
         a1:fb:5d:28:49:19:1c:14:a7:8b:7b:37:bc:4d:31:77:5f:67:
         39:d9:a0:bf:8c:eb:61:1a:ce:92:12:29:d2:95:be:46:62:3e:
         56:98:f6:63:0b:f7:15:7b:b3:bc:ab:22:ad:60:3a:f6:b6:64:
         7c:e8:15:ee:6e:73:4f:59:98:99:84:d9:cb:10:a0:aa:78:94:
         6d:83:2e:49:b6:eb:da:fb:1d:71:96:c1:51:54:75:26:61:e3:
         f6:1b:21:0d:87:9f:f9:6b:6e:f2:05:6d:6a:1b:e8:36:74:ca:
         cc:6f:00:d1:64:04:6c:63:6b:4d:a9:54:68:4d:e4:0b:4d:a0:
         4f:d2:b4:ee:a7:d0:de:d9:17:59:f0:f2:bb:51:9d:c2:a1:11:
         c4:ea:45:e7
-----BEGIN CERTIFICATE-----
MIIDbjCCAlagAwIBAgIQJp3Z/BXXsmX9lZwhzwsxJzANBgkqhkiG9w0BAQsFADAW
MRQwEgYDVQQDDAtFYXN5LVJTQSBDQTAeFw0yNDA1MTQwOTQ0MDFaFw0zNDA1MTIw
OTQ0MDFaMCsxKTAnBgNVBAMMIDMxNjE5NjYwOTBlNzkxMjM4NWE1YWVmNzk0MmU4
NTFmMIIBIjANBgkqhkiG9w0BAQEFAAOCAQ8AMIIBCgKCAQEA0YKJxA8AEEFgkN8W
OTZypKucYRQPWnLfL1N/uQqKe3lhcDRxaEWowbHBgNDQ7FtwcQAcxtBI4/i00r8d
0/AG16MuPPHif2EU1w77eCBKn/aPWN9imRvxW2E9dDKFo2Lop7GAuMPMZDJt9u6C
yfr8C6r9S5sJuV0vMiGO+RyUwUvvYWBga1ekw4ythEQgfo+IycVyiFYn4n3Nq5Vp
rm1L5Ewk+2pOE6K5D4zx2U8HJQ0LRo/4rtV21hvEFKhBQjqKbJjvc6SozCJbwGpM
NKwMr/Yh6SYqpmVjnIv3EyBs+bk1+VzN0o/TXEtqsmrAvPUB4gMQ3WAIAhYldTMk
kgc6UQIDAQABo4GiMIGfMAkGA1UdEwQCMAAwHQYDVR0OBBYEFACvM2+I08RLzySR
4D+1spatZVm8MFEGA1UdIwRKMEiAFED6b7R17aWYkAnBTEZBdyvpGZiooRqkGDAW
MRQwEgYDVQQDDAtFYXN5LVJTQSBDQYIUP5D1lSAMGY2RgXLUgXuSqQPr3PYwEwYD
VR0lBAwwCgYIKwYBBQUHAwIwCwYDVR0PBAQDAgeAMA0GCSqGSIb3DQEBCwUAA4IB
AQBU6DxZBr0jOt8ZruI9IW3W8A6PTrqSFePH52ybLvD+LcYX6pcBk3ACs6Ysdvnw
vuXCrSKEFxMnEppfhSBvSzwwjezY252emNNzTzQYxvWXShAYq9twDe8qzL8OBD+C
vL2/tdJbgnl02FaeqFCh+10oSRkcFKeLeze8TTF3X2c52aC/jOthGs6SEinSlb5G
Yj5WmPZjC/cVe7O8qyKtYDr2tmR86BXubnNPWZiZhNnLEKCqeJRtgy5Jtuva+x1x
lsFRVHUmYeP2GyENh5/5a27yBW1qG+g2dMrMbwDRZARsY2tNqVRoTeQLTaBP0rTu
p9De2RdZ8PK7UZ3CoRHE6kXn
-----END CERTIFICATE-----
