Certificate:
    Data:
        Version: 3 (0x2)
        Serial Number:
            26:aa:ab:bb:76:85:f4:af:ee:d9:d9:34:92:58:32:2d
        Signature Algorithm: sha256WithRSAEncryption
        Issuer: CN=Easy-RSA CA
        Validity
            Not Before: May  8 14:47:09 2024 GMT
            Not After : May  6 14:47:09 2034 GMT
        Subject: CN=239f5dff7b474562f4b6524bf032472e
        Subject Public Key Info:
            Public Key Algorithm: rsaEncryption
                RSA Public-Key: (2048 bit)
                Modulus:
                    00:b5:97:34:f1:f4:d1:90:df:1a:97:22:9f:a9:d9:
                    86:95:0b:89:76:f3:5b:ab:41:12:ba:0e:96:3e:30:
                    57:56:c7:a2:0d:98:67:59:a7:d2:df:b9:4b:67:02:
                    d7:3d:f2:11:b8:ed:15:dc:bf:9f:2a:98:c8:f5:54:
                    7f:6b:53:cc:e4:be:2d:33:42:94:03:8d:51:88:b4:
                    2e:6c:0d:08:2b:ab:e4:07:5d:20:ec:85:43:ae:a2:
                    78:f1:9e:b0:2e:0d:c1:ad:5c:eb:25:00:b9:4b:d9:
                    fe:f1:d0:d6:4e:00:3a:4b:de:1d:d6:cf:d1:e2:6f:
                    75:e4:ed:78:b3:55:cc:b6:22:6c:d6:93:c6:16:60:
                    2a:13:bd:7d:82:f5:ea:31:84:ed:15:90:c1:4c:27:
                    ec:72:81:dd:3a:90:7a:b5:a7:cb:9b:d0:22:d9:34:
                    83:e9:51:c3:eb:c3:3f:d9:4c:8e:06:b0:74:b0:56:
                    b7:e2:15:96:17:91:76:7d:b5:65:88:b8:2d:8c:31:
                    15:81:68:d0:ef:f1:8e:50:bc:17:04:63:98:c9:23:
                    81:95:90:01:29:11:f7:28:62:75:8b:74:6d:39:ae:
                    34:8a:0b:aa:3a:18:a1:ad:f9:7a:10:18:e7:81:a6:
                    d4:6a:ee:31:57:37:77:14:5f:56:41:70:11:b6:20:
                    0e:03
                Exponent: 65537 (0x10001)
        X509v3 extensions:
            X509v3 Basic Constraints: 
                CA:FALSE
            X509v3 Subject Key Identifier: 
                48:44:90:6B:DD:07:75:B7:14:E3:BA:F1:4D:20:A6:70:08:24:88:4E
            X509v3 Authority Key Identifier: 
                keyid:40:FA:6F:B4:75:ED:A5:98:90:09:C1:4C:46:41:77:2B:E9:19:98:A8
                DirName:/CN=Easy-RSA CA
                serial:3F:90:F5:95:20:0C:19:8D:91:81:72:D4:81:7B:92:A9:03:EB:DC:F6

            X509v3 Extended Key Usage: 
                TLS Web Client Authentication
            X509v3 Key Usage: 
                Digital Signature
    Signature Algorithm: sha256WithRSAEncryption
         2c:2f:7f:67:6c:c1:90:31:ee:a8:81:e9:53:f9:b6:30:03:e9:
         7f:fd:35:4a:34:80:62:9f:09:bd:da:c9:4e:52:08:35:8a:c0:
         7d:26:f7:5b:bb:98:fd:06:86:7d:9a:de:59:72:ee:5c:ed:aa:
         c6:d4:70:b8:9d:5a:2d:c3:73:da:33:1e:12:4f:2d:2e:ac:19:
         8a:9a:bd:f2:e1:db:ac:97:a0:53:ed:17:5d:3c:e5:25:0c:af:
         40:68:36:d5:ee:5c:5c:a2:1b:ae:ce:75:41:62:c3:c0:82:71:
         f4:ab:e8:f7:b7:66:c5:15:e2:7d:c7:d8:61:2c:50:9e:af:da:
         75:35:bd:49:a0:e9:8e:aa:ce:bc:e1:68:ad:ea:1c:d5:10:05:
         ac:f5:3d:80:aa:77:c7:63:04:b2:d2:61:ae:99:d9:b7:f0:af:
         b4:2c:f8:ed:a3:82:ec:fc:51:b2:b8:34:50:d0:3c:8f:c6:b0:
         12:a8:8b:1c:3b:33:5b:a4:f1:80:ea:d6:a7:79:60:cd:e0:ef:
         2b:f4:72:73:2c:a6:07:24:42:3f:1a:16:6a:93:11:e1:0a:e3:
         06:0c:32:3a:7f:36:fa:8d:0b:69:95:5d:93:e3:67:37:e8:b0:
         07:14:b5:b1:28:1f:4b:9f:11:89:d6:f2:a6:bf:61:72:c1:e5:
         2e:18:c5:d3
-----BEGIN CERTIFICATE-----
MIIDbjCCAlagAwIBAgIQJqqru3aF9K/u2dk0klgyLTANBgkqhkiG9w0BAQsFADAW
MRQwEgYDVQQDDAtFYXN5LVJTQSBDQTAeFw0yNDA1MDgxNDQ3MDlaFw0zNDA1MDYx
NDQ3MDlaMCsxKTAnBgNVBAMMIDIzOWY1ZGZmN2I0NzQ1NjJmNGI2NTI0YmYwMzI0
NzJlMIIBIjANBgkqhkiG9w0BAQEFAAOCAQ8AMIIBCgKCAQEAtZc08fTRkN8alyKf
qdmGlQuJdvNbq0ESug6WPjBXVseiDZhnWafS37lLZwLXPfIRuO0V3L+fKpjI9VR/
a1PM5L4tM0KUA41RiLQubA0IK6vkB10g7IVDrqJ48Z6wLg3BrVzrJQC5S9n+8dDW
TgA6S94d1s/R4m915O14s1XMtiJs1pPGFmAqE719gvXqMYTtFZDBTCfscoHdOpB6
tafLm9Ai2TSD6VHD68M/2UyOBrB0sFa34hWWF5F2fbVliLgtjDEVgWjQ7/GOULwX
BGOYySOBlZABKRH3KGJ1i3RtOa40iguqOhihrfl6EBjngabUau4xVzd3FF9WQXAR
tiAOAwIDAQABo4GiMIGfMAkGA1UdEwQCMAAwHQYDVR0OBBYEFEhEkGvdB3W3FOO6
8U0gpnAIJIhOMFEGA1UdIwRKMEiAFED6b7R17aWYkAnBTEZBdyvpGZiooRqkGDAW
MRQwEgYDVQQDDAtFYXN5LVJTQSBDQYIUP5D1lSAMGY2RgXLUgXuSqQPr3PYwEwYD
VR0lBAwwCgYIKwYBBQUHAwIwCwYDVR0PBAQDAgeAMA0GCSqGSIb3DQEBCwUAA4IB
AQAsL39nbMGQMe6ogelT+bYwA+l//TVKNIBinwm92slOUgg1isB9Jvdbu5j9BoZ9
mt5Zcu5c7arG1HC4nVotw3PaMx4STy0urBmKmr3y4dusl6BT7RddPOUlDK9AaDbV
7lxcohuuznVBYsPAgnH0q+j3t2bFFeJ9x9hhLFCer9p1Nb1JoOmOqs684Wit6hzV
EAWs9T2AqnfHYwSy0mGumdm38K+0LPjto4Ls/FGyuDRQ0DyPxrASqIscOzNbpPGA
6taneWDN4O8r9HJzLKYHJEI/GhZqkxHhCuMGDDI6fzb6jQtplV2T42c36LAHFLWx
KB9LnxGJ1vKmv2FyweUuGMXT
-----END CERTIFICATE-----
