Certificate:
    Data:
        Version: 3 (0x2)
        Serial Number:
            29:8d:4c:9c:04:c0:f3:dd:1c:f1:87:fc:6a:35:8d:95
        Signature Algorithm: sha256WithRSAEncryption
        Issuer: CN=Easy-RSA CA
        Validity
            Not Before: May 11 06:27:52 2024 GMT
            Not After : May  9 06:27:52 2034 GMT
        Subject: CN=74fe8de8d31c87dbb426f44ef07c3d6b
        Subject Public Key Info:
            Public Key Algorithm: rsaEncryption
                RSA Public-Key: (2048 bit)
                Modulus:
                    00:ea:ac:9c:22:b1:19:77:d1:e5:c6:e8:3c:2e:d1:
                    ac:ee:ca:06:a0:79:a9:70:81:34:dc:ca:cd:0e:ee:
                    a8:77:bc:4a:c4:af:28:ed:fa:ce:3f:95:0b:a5:2f:
                    97:2c:fb:31:01:75:9b:45:cd:28:bd:5f:c1:a2:be:
                    79:0a:1c:97:43:d9:56:2f:eb:06:b0:26:b9:48:f5:
                    be:86:54:23:74:16:a0:e7:17:97:51:1e:d1:90:07:
                    b3:e8:9a:9a:6e:12:ff:6c:c6:68:4d:29:0d:c5:d0:
                    26:af:fb:55:98:bd:7c:77:3b:ae:c0:ec:20:73:31:
                    d3:ac:24:33:2a:bc:1b:3b:65:25:aa:d9:e8:dc:d6:
                    db:ca:90:7a:74:b0:5e:16:84:7f:da:ee:21:30:64:
                    5e:20:61:4d:0c:c9:e0:66:17:57:f7:39:63:b5:a4:
                    d2:57:e4:1b:a1:bc:80:f2:a8:cb:5a:95:c9:35:71:
                    14:3f:59:c9:4d:b6:2c:55:88:45:5b:21:55:94:7d:
                    c2:18:af:3d:d1:87:c3:9c:ce:19:d9:68:eb:c8:ab:
                    53:58:d1:58:16:ef:16:42:7c:6b:76:f6:b4:99:30:
                    68:f7:d1:1e:3c:cd:2f:ab:56:c2:64:d2:e6:c9:0c:
                    bc:87:37:9b:56:c2:4c:7e:ea:ae:b2:26:eb:d0:95:
                    76:95
                Exponent: 65537 (0x10001)
        X509v3 extensions:
            X509v3 Basic Constraints: 
                CA:FALSE
            X509v3 Subject Key Identifier: 
                4E:57:92:F7:5F:49:45:96:F9:9B:E0:86:21:A5:14:F5:94:EE:10:91
            X509v3 Authority Key Identifier: 
                keyid:40:FA:6F:B4:75:ED:A5:98:90:09:C1:4C:46:41:77:2B:E9:19:98:A8
                DirName:/CN=Easy-RSA CA
                serial:3F:90:F5:95:20:0C:19:8D:91:81:72:D4:81:7B:92:A9:03:EB:DC:F6

            X509v3 Extended Key Usage: 
                TLS Web Client Authentication
            X509v3 Key Usage: 
                Digital Signature
    Signature Algorithm: sha256WithRSAEncryption
         32:3b:32:3f:cb:13:7a:6c:f9:43:ee:d4:e3:0b:b4:0b:0e:8d:
         82:8e:bf:2a:53:f1:0f:13:d7:7c:33:56:7b:9e:35:ee:da:d0:
         ac:8e:ab:3a:80:b0:eb:6a:3c:63:29:47:d6:4f:94:19:66:a5:
         96:6a:0f:00:48:3d:89:d4:26:ec:7c:83:40:b9:1f:b1:55:c1:
         e5:e9:07:26:45:23:81:ef:ff:57:56:db:d8:ee:64:a6:7f:7d:
         47:2b:9f:85:e4:b7:99:96:09:03:af:74:19:90:0c:f7:65:41:
         eb:e8:a2:9d:3e:a5:d9:0b:74:aa:27:db:23:1c:5e:ae:db:fb:
         34:ac:41:a2:7d:26:0d:ad:58:1f:d4:6b:93:bf:fe:74:af:30:
         ae:05:17:80:ed:16:c8:16:f4:04:7b:e3:85:d0:27:62:bb:88:
         b7:a0:91:ed:04:2f:2b:6b:f0:00:ef:2f:ce:12:9b:a2:c0:86:
         c8:6c:bb:70:4f:70:1a:fc:0c:c6:bb:c7:c7:d4:23:01:e2:1b:
         82:30:c4:15:a9:7b:dd:63:b9:25:ac:6a:b8:b0:46:2f:23:20:
         d9:77:30:31:96:da:e2:c9:03:0b:cc:93:9f:67:a2:f7:7c:c0:
         cc:ea:3a:74:42:f1:11:83:53:73:a5:10:32:79:d6:71:a6:ad:
         4f:26:38:63
-----BEGIN CERTIFICATE-----
MIIDbjCCAlagAwIBAgIQKY1MnATA890c8Yf8ajWNlTANBgkqhkiG9w0BAQsFADAW
MRQwEgYDVQQDDAtFYXN5LVJTQSBDQTAeFw0yNDA1MTEwNjI3NTJaFw0zNDA1MDkw
NjI3NTJaMCsxKTAnBgNVBAMMIDc0ZmU4ZGU4ZDMxYzg3ZGJiNDI2ZjQ0ZWYwN2Mz
ZDZiMIIBIjANBgkqhkiG9w0BAQEFAAOCAQ8AMIIBCgKCAQEA6qycIrEZd9Hlxug8
LtGs7soGoHmpcIE03MrNDu6od7xKxK8o7frOP5ULpS+XLPsxAXWbRc0ovV/Bor55
ChyXQ9lWL+sGsCa5SPW+hlQjdBag5xeXUR7RkAez6JqabhL/bMZoTSkNxdAmr/tV
mL18dzuuwOwgczHTrCQzKrwbO2Ulqtno3NbbypB6dLBeFoR/2u4hMGReIGFNDMng
ZhdX9zljtaTSV+QbobyA8qjLWpXJNXEUP1nJTbYsVYhFWyFVlH3CGK890YfDnM4Z
2WjryKtTWNFYFu8WQnxrdva0mTBo99EePM0vq1bCZNLmyQy8hzebVsJMfuqusibr
0JV2lQIDAQABo4GiMIGfMAkGA1UdEwQCMAAwHQYDVR0OBBYEFE5XkvdfSUWW+Zvg
hiGlFPWU7hCRMFEGA1UdIwRKMEiAFED6b7R17aWYkAnBTEZBdyvpGZiooRqkGDAW
MRQwEgYDVQQDDAtFYXN5LVJTQSBDQYIUP5D1lSAMGY2RgXLUgXuSqQPr3PYwEwYD
VR0lBAwwCgYIKwYBBQUHAwIwCwYDVR0PBAQDAgeAMA0GCSqGSIb3DQEBCwUAA4IB
AQAyOzI/yxN6bPlD7tTjC7QLDo2Cjr8qU/EPE9d8M1Z7njXu2tCsjqs6gLDrajxj
KUfWT5QZZqWWag8ASD2J1CbsfINAuR+xVcHl6QcmRSOB7/9XVtvY7mSmf31HK5+F
5LeZlgkDr3QZkAz3ZUHr6KKdPqXZC3SqJ9sjHF6u2/s0rEGifSYNrVgf1GuTv/50
rzCuBReA7RbIFvQEe+OF0Cdiu4i3oJHtBC8ra/AA7y/OEpuiwIbIbLtwT3Aa/AzG
u8fH1CMB4huCMMQVqXvdY7klrGq4sEYvIyDZdzAxltriyQMLzJOfZ6L3fMDM6jp0
QvERg1NzpRAyedZxpq1PJjhj
-----END CERTIFICATE-----
