Certificate:
    Data:
        Version: 3 (0x2)
        Serial Number:
            29:ed:4f:c2:ea:67:f3:d4:af:4f:45:33:20:b3:66:cc
        Signature Algorithm: sha256WithRSAEncryption
        Issuer: CN=Easy-RSA CA
        Validity
            Not Before: May  8 13:54:24 2024 GMT
            Not After : May  6 13:54:24 2034 GMT
        Subject: CN=239f5dff7b474562f4b6524bf032472e
        Subject Public Key Info:
            Public Key Algorithm: rsaEncryption
                RSA Public-Key: (2048 bit)
                Modulus:
                    00:b5:97:34:f1:f4:d1:90:df:1a:97:22:9f:a9:d9:
                    86:95:0b:89:76:f3:5b:ab:41:12:ba:0e:96:3e:30:
                    57:56:c7:a2:0d:98:67:59:a7:d2:df:b9:4b:67:02:
                    d7:3d:f2:11:b8:ed:15:dc:bf:9f:2a:98:c8:f5:54:
                    7f:6b:53:cc:e4:be:2d:33:42:94:03:8d:51:88:b4:
                    2e:6c:0d:08:2b:ab:e4:07:5d:20:ec:85:43:ae:a2:
                    78:f1:9e:b0:2e:0d:c1:ad:5c:eb:25:00:b9:4b:d9:
                    fe:f1:d0:d6:4e:00:3a:4b:de:1d:d6:cf:d1:e2:6f:
                    75:e4:ed:78:b3:55:cc:b6:22:6c:d6:93:c6:16:60:
                    2a:13:bd:7d:82:f5:ea:31:84:ed:15:90:c1:4c:27:
                    ec:72:81:dd:3a:90:7a:b5:a7:cb:9b:d0:22:d9:34:
                    83:e9:51:c3:eb:c3:3f:d9:4c:8e:06:b0:74:b0:56:
                    b7:e2:15:96:17:91:76:7d:b5:65:88:b8:2d:8c:31:
                    15:81:68:d0:ef:f1:8e:50:bc:17:04:63:98:c9:23:
                    81:95:90:01:29:11:f7:28:62:75:8b:74:6d:39:ae:
                    34:8a:0b:aa:3a:18:a1:ad:f9:7a:10:18:e7:81:a6:
                    d4:6a:ee:31:57:37:77:14:5f:56:41:70:11:b6:20:
                    0e:03
                Exponent: 65537 (0x10001)
        X509v3 extensions:
            X509v3 Basic Constraints: 
                CA:FALSE
            X509v3 Subject Key Identifier: 
                48:44:90:6B:DD:07:75:B7:14:E3:BA:F1:4D:20:A6:70:08:24:88:4E
            X509v3 Authority Key Identifier: 
                keyid:40:FA:6F:B4:75:ED:A5:98:90:09:C1:4C:46:41:77:2B:E9:19:98:A8
                DirName:/CN=Easy-RSA CA
                serial:3F:90:F5:95:20:0C:19:8D:91:81:72:D4:81:7B:92:A9:03:EB:DC:F6

            X509v3 Extended Key Usage: 
                TLS Web Client Authentication
            X509v3 Key Usage: 
                Digital Signature
    Signature Algorithm: sha256WithRSAEncryption
         39:fb:ff:0d:84:aa:98:8a:43:c0:41:ca:99:b8:35:39:97:a0:
         7f:83:5a:50:26:5b:27:48:43:41:4d:90:4b:90:0f:7c:b9:15:
         b5:bd:6e:1a:9b:53:80:18:77:7e:37:a4:6e:c6:e4:a4:2f:46:
         52:85:39:e3:0c:8e:47:51:a8:4c:7d:02:d0:ac:82:58:5e:f1:
         ca:16:25:31:b9:3c:d0:c2:05:a5:0b:c7:9a:b9:54:3b:f2:38:
         8c:9a:76:a9:81:98:bd:35:17:f8:37:8d:35:c5:d5:20:be:c1:
         4c:bd:a9:04:15:c5:8a:05:de:0e:52:5b:b4:9f:ba:ff:d0:08:
         4c:3d:51:46:66:f8:cc:a6:03:eb:43:06:5f:51:98:66:52:c4:
         98:c1:b3:a0:a1:27:84:75:b2:7d:26:f9:8c:dc:48:66:0d:39:
         b7:97:72:b4:38:f7:64:e4:24:25:6e:d8:d3:ca:5f:47:ab:3c:
         c9:41:9d:9d:62:f7:d6:2e:e5:ec:fb:69:88:de:83:9e:88:ce:
         50:2d:4f:fb:c6:7f:61:95:76:c7:59:2a:e7:42:91:08:18:ff:
         54:63:9d:24:31:2a:f1:c0:e4:89:1f:47:6d:b6:77:c0:6b:67:
         85:d7:83:83:b8:96:00:a9:e1:88:75:18:cc:84:3e:78:cc:3e:
         38:fb:37:e1
-----BEGIN CERTIFICATE-----
MIIDbjCCAlagAwIBAgIQKe1Pwupn89SvT0UzILNmzDANBgkqhkiG9w0BAQsFADAW
MRQwEgYDVQQDDAtFYXN5LVJTQSBDQTAeFw0yNDA1MDgxMzU0MjRaFw0zNDA1MDYx
MzU0MjRaMCsxKTAnBgNVBAMMIDIzOWY1ZGZmN2I0NzQ1NjJmNGI2NTI0YmYwMzI0
NzJlMIIBIjANBgkqhkiG9w0BAQEFAAOCAQ8AMIIBCgKCAQEAtZc08fTRkN8alyKf
qdmGlQuJdvNbq0ESug6WPjBXVseiDZhnWafS37lLZwLXPfIRuO0V3L+fKpjI9VR/
a1PM5L4tM0KUA41RiLQubA0IK6vkB10g7IVDrqJ48Z6wLg3BrVzrJQC5S9n+8dDW
TgA6S94d1s/R4m915O14s1XMtiJs1pPGFmAqE719gvXqMYTtFZDBTCfscoHdOpB6
tafLm9Ai2TSD6VHD68M/2UyOBrB0sFa34hWWF5F2fbVliLgtjDEVgWjQ7/GOULwX
BGOYySOBlZABKRH3KGJ1i3RtOa40iguqOhihrfl6EBjngabUau4xVzd3FF9WQXAR
tiAOAwIDAQABo4GiMIGfMAkGA1UdEwQCMAAwHQYDVR0OBBYEFEhEkGvdB3W3FOO6
8U0gpnAIJIhOMFEGA1UdIwRKMEiAFED6b7R17aWYkAnBTEZBdyvpGZiooRqkGDAW
MRQwEgYDVQQDDAtFYXN5LVJTQSBDQYIUP5D1lSAMGY2RgXLUgXuSqQPr3PYwEwYD
VR0lBAwwCgYIKwYBBQUHAwIwCwYDVR0PBAQDAgeAMA0GCSqGSIb3DQEBCwUAA4IB
AQA5+/8NhKqYikPAQcqZuDU5l6B/g1pQJlsnSENBTZBLkA98uRW1vW4am1OAGHd+
N6RuxuSkL0ZShTnjDI5HUahMfQLQrIJYXvHKFiUxuTzQwgWlC8eauVQ78jiMmnap
gZi9NRf4N401xdUgvsFMvakEFcWKBd4OUlu0n7r/0AhMPVFGZvjMpgPrQwZfUZhm
UsSYwbOgoSeEdbJ9JvmM3EhmDTm3l3K0OPdk5CQlbtjTyl9HqzzJQZ2dYvfWLuXs
+2mI3oOeiM5QLU/7xn9hlXbHWSrnQpEIGP9UY50kMSrxwOSJH0dttnfAa2eF14OD
uJYAqeGIdRjMhD54zD44+zfh
-----END CERTIFICATE-----
