Certificate:
    Data:
        Version: 3 (0x2)
        Serial Number:
            2b:a4:62:1f:cd:49:6b:fa:87:2d:3b:8f:52:e6:57:38
        Signature Algorithm: sha256WithRSAEncryption
        Issuer: CN=Easy-RSA CA
        Validity
            Not Before: May  6 07:27:17 2024 GMT
            Not After : May  4 07:27:17 2034 GMT
        Subject: CN=lx_zhiyuan_01
        Subject Public Key Info:
            Public Key Algorithm: rsaEncryption
                RSA Public-Key: (2048 bit)
                Modulus:
                    00:d1:4a:db:61:5a:e1:1e:57:6d:96:fc:23:f6:3c:
                    8e:da:9c:d8:9d:fd:2e:92:3f:4f:79:76:66:08:5d:
                    f9:43:98:2f:de:f2:d5:cd:a8:75:24:b9:7f:6f:97:
                    f3:a8:6b:cb:f6:cf:51:79:87:8f:08:cc:21:8f:61:
                    03:2b:28:ce:e7:d4:2a:dc:ad:65:2d:8b:b6:ea:1a:
                    0e:8e:36:f1:0c:80:54:fe:0c:8b:7c:df:cf:0e:ee:
                    f7:07:f1:4b:bd:6b:7a:fa:75:3a:e1:ff:c8:88:d0:
                    19:65:5b:3d:ea:04:86:a9:ef:89:9b:ab:c4:11:22:
                    2d:8a:d2:34:e5:dc:f7:62:e3:39:c3:d5:a3:fd:f7:
                    d9:a1:7a:43:99:8b:84:89:d6:20:bf:0b:6b:27:a2:
                    b2:53:9b:51:1e:4c:58:83:13:a0:a9:8a:34:a7:ea:
                    2e:df:d5:97:9c:c4:47:a4:3f:f7:f6:3a:ce:9a:aa:
                    fc:9a:59:02:1f:2f:64:c5:56:aa:3e:25:a2:05:ef:
                    7f:7c:64:a1:fb:43:03:3f:dc:7a:5c:8d:5a:57:8a:
                    8c:ca:bf:be:ea:1e:65:db:15:90:54:56:24:c5:38:
                    cb:3d:ac:c8:98:74:e6:88:33:c7:3d:62:0c:f5:63:
                    6e:e9:f7:03:8c:a8:c8:7c:ac:a0:a0:99:6f:2f:5a:
                    7c:51
                Exponent: 65537 (0x10001)
        X509v3 extensions:
            X509v3 Basic Constraints: 
                CA:FALSE
            X509v3 Subject Key Identifier: 
                D5:68:1E:C9:1D:93:B8:FB:7C:E8:AC:9D:12:E9:38:40:93:B4:1D:EF
            X509v3 Authority Key Identifier: 
                keyid:40:FA:6F:B4:75:ED:A5:98:90:09:C1:4C:46:41:77:2B:E9:19:98:A8
                DirName:/CN=Easy-RSA CA
                serial:3F:90:F5:95:20:0C:19:8D:91:81:72:D4:81:7B:92:A9:03:EB:DC:F6

            X509v3 Extended Key Usage: 
                TLS Web Client Authentication
            X509v3 Key Usage: 
                Digital Signature
    Signature Algorithm: sha256WithRSAEncryption
         4b:eb:de:7d:2a:e6:25:b4:56:bb:5b:f0:70:2b:86:ee:95:38:
         96:13:9d:9f:6d:af:22:6c:68:5b:ab:6b:67:3a:21:90:8b:aa:
         79:76:ee:92:ee:26:7d:fd:72:67:73:ec:b7:9d:2b:60:39:35:
         e1:04:b6:b5:b3:42:34:00:32:69:85:e3:71:de:da:2d:6c:8e:
         ff:fd:92:bc:df:9c:46:71:d2:e7:56:d4:1a:66:37:25:52:2c:
         ba:bd:5d:03:ba:1e:42:3d:60:0c:92:ba:2d:c0:ca:d6:22:7e:
         d8:c3:c9:f1:7c:b0:79:79:eb:8d:83:f6:77:2c:a2:6d:51:4e:
         5f:d0:1c:8c:0a:81:19:6f:93:be:14:c2:1f:d9:31:f6:55:39:
         3b:57:e3:27:26:45:88:c7:f8:44:2e:69:c0:09:50:44:38:65:
         96:14:87:a5:58:60:02:8d:87:24:67:7b:ee:05:a6:91:d5:85:
         f1:cf:95:a7:01:02:2d:fb:db:07:61:f7:bc:39:9a:29:db:78:
         1d:24:91:82:53:54:e2:e3:a4:dc:d4:08:97:86:a5:0b:97:5b:
         d6:6f:41:7a:9a:ba:71:02:1e:f8:36:1f:48:c9:d7:19:ea:f3:
         3a:dc:a4:5e:62:87:0a:b7:a8:f8:01:14:3f:f9:cb:1f:f3:43:
         3d:9c:43:10
-----BEGIN CERTIFICATE-----
MIIDWzCCAkOgAwIBAgIQK6RiH81Ja/qHLTuPUuZXODANBgkqhkiG9w0BAQsFADAW
MRQwEgYDVQQDDAtFYXN5LVJTQSBDQTAeFw0yNDA1MDYwNzI3MTdaFw0zNDA1MDQw
NzI3MTdaMBgxFjAUBgNVBAMMDWx4X3poaXl1YW5fMDEwggEiMA0GCSqGSIb3DQEB
AQUAA4IBDwAwggEKAoIBAQDRStthWuEeV22W/CP2PI7anNid/S6SP095dmYIXflD
mC/e8tXNqHUkuX9vl/Ooa8v2z1F5h48IzCGPYQMrKM7n1CrcrWUti7bqGg6ONvEM
gFT+DIt8388O7vcH8Uu9a3r6dTrh/8iI0BllWz3qBIap74mbq8QRIi2K0jTl3Pdi
4znD1aP999mhekOZi4SJ1iC/C2snorJTm1EeTFiDE6CpijSn6i7f1ZecxEekP/f2
Os6aqvyaWQIfL2TFVqo+JaIF7398ZKH7QwM/3HpcjVpXiozKv77qHmXbFZBUViTF
OMs9rMiYdOaIM8c9Ygz1Y27p9wOMqMh8rKCgmW8vWnxRAgMBAAGjgaIwgZ8wCQYD
VR0TBAIwADAdBgNVHQ4EFgQU1WgeyR2TuPt86KydEuk4QJO0He8wUQYDVR0jBEow
SIAUQPpvtHXtpZiQCcFMRkF3K+kZmKihGqQYMBYxFDASBgNVBAMMC0Vhc3ktUlNB
IENBghQ/kPWVIAwZjZGBctSBe5KpA+vc9jATBgNVHSUEDDAKBggrBgEFBQcDAjAL
BgNVHQ8EBAMCB4AwDQYJKoZIhvcNAQELBQADggEBAEvr3n0q5iW0Vrtb8HArhu6V
OJYTnZ9tryJsaFura2c6IZCLqnl27pLuJn39cmdz7LedK2A5NeEEtrWzQjQAMmmF
43He2i1sjv/9krzfnEZx0udW1BpmNyVSLLq9XQO6HkI9YAySui3AytYiftjDyfF8
sHl5642D9ncsom1RTl/QHIwKgRlvk74Uwh/ZMfZVOTtX4ycmRYjH+EQuacAJUEQ4
ZZYUh6VYYAKNhyRne+4FppHVhfHPlacBAi372wdh97w5minbeB0kkYJTVOLjpNzU
CJeGpQuXW9ZvQXqaunECHvg2H0jJ1xnq8zrcpF5ihwq3qPgBFD/5yx/zQz2cQxA=
-----END CERTIFICATE-----
