Certificate:
    Data:
        Version: 3 (0x2)
        Serial Number:
            2e:be:f4:02:7b:20:b5:8f:4d:fc:b2:64:d8:eb:06:96
        Signature Algorithm: sha256WithRSAEncryption
        Issuer: CN=Easy-RSA CA
        Validity
            Not Before: May 14 12:03:01 2024 GMT
            Not After : May 12 12:03:01 2034 GMT
        Subject: CN=test
        Subject Public Key Info:
            Public Key Algorithm: rsaEncryption
                Public-Key: (2048 bit)
                Modulus:
                    00:b3:d0:cd:42:2d:ee:a8:fb:d8:6f:61:17:45:eb:
                    87:1b:28:10:24:48:0a:8d:e9:05:37:1f:8e:14:21:
                    40:e2:fc:24:b8:cf:a3:8f:33:bf:be:59:5a:13:b8:
                    04:77:6d:9f:d9:04:86:a9:7f:67:db:25:ff:a2:ec:
                    ac:67:a8:96:fa:90:97:ec:72:5a:e1:bd:84:20:f2:
                    2f:de:bd:91:da:23:fe:ec:9a:7d:47:90:08:8f:d7:
                    a0:83:3b:17:b5:f2:e1:0f:05:d5:b5:ea:57:85:d2:
                    56:15:d3:e1:8e:88:a0:0e:59:b4:e3:48:81:6d:9e:
                    77:eb:fe:74:7c:15:1c:bf:04:a3:a1:e0:cd:8e:52:
                    42:9f:05:21:1c:d1:db:f5:fe:57:8d:0c:5f:76:bd:
                    94:b9:08:14:0e:d7:dd:db:0b:6e:cf:66:af:6e:2e:
                    e5:4b:fb:81:ea:ca:5c:63:b0:01:e8:63:b4:72:e2:
                    43:82:3c:b3:7d:bf:01:4c:14:83:47:e5:27:a2:c5:
                    86:a2:ee:da:f9:17:57:72:31:50:cd:95:66:b7:8b:
                    63:18:11:db:8b:66:ab:39:8d:b0:fa:da:1b:4d:a1:
                    78:1d:1c:45:80:46:9c:4f:11:5a:d6:2c:03:71:74:
                    c0:60:80:02:d9:34:09:61:99:c7:3f:ba:7f:e4:47:
                    17:91
                Exponent: 65537 (0x10001)
        X509v3 extensions:
            X509v3 Basic Constraints: 
                CA:FALSE
            X509v3 Subject Key Identifier: 
                4F:87:F4:91:9A:BF:E6:12:91:68:E9:CB:0F:8A:44:A2:25:B2:17:F9
            X509v3 Authority Key Identifier: 
                keyid:40:FA:6F:B4:75:ED:A5:98:90:09:C1:4C:46:41:77:2B:E9:19:98:A8
                DirName:/CN=Easy-RSA CA
                serial:3F:90:F5:95:20:0C:19:8D:91:81:72:D4:81:7B:92:A9:03:EB:DC:F6
            X509v3 Extended Key Usage: 
                TLS Web Client Authentication
            X509v3 Key Usage: 
                Digital Signature
    Signature Algorithm: sha256WithRSAEncryption
    Signature Value:
        6b:2b:26:4c:1c:47:c2:dc:2b:c1:82:16:ec:99:ad:b9:ba:c4:
        0f:75:36:12:bb:4a:ad:44:c9:42:64:96:42:e7:f2:d8:ce:ff:
        ec:24:e7:89:dc:51:36:e0:76:1d:c1:3c:26:ff:a9:1d:0d:dd:
        c9:a5:db:14:2c:41:2c:1d:be:33:2c:0d:0f:86:2e:52:be:a1:
        d1:59:88:92:2c:b2:2d:ed:bf:bd:2c:25:81:b5:3c:6a:63:ee:
        5b:2a:78:d5:d3:36:26:76:b3:e6:8e:1e:02:9d:de:f7:4f:64:
        ef:c9:75:8c:f4:93:b9:ed:89:f4:f9:df:33:ee:23:b0:0c:72:
        cb:5c:ce:83:51:cd:d7:fa:1e:16:6c:50:2e:3c:ef:80:b9:be:
        f7:fc:86:5b:c8:38:b5:3c:b4:a7:e0:74:f7:51:61:ab:c2:ee:
        a6:81:5e:d2:c7:4c:2a:97:11:db:39:16:30:be:c4:93:91:88:
        98:3b:a1:28:ce:bb:d6:1c:d7:04:18:51:24:f6:fc:5f:c5:9c:
        9d:a8:f4:c9:36:20:bb:8d:ed:a7:09:ec:21:97:bc:41:1e:b5:
        64:02:1e:5c:15:e3:b6:ac:1f:60:75:7e:cd:c6:39:af:06:75:
        95:d7:cb:f2:6c:c1:f3:2c:9c:f2:a5:54:ff:c6:2f:dc:a9:1a:
        de:5f:18:52
-----BEGIN CERTIFICATE-----
MIIDUjCCAjqgAwIBAgIQLr70AnsgtY9N/LJk2OsGljANBgkqhkiG9w0BAQsFADAW
MRQwEgYDVQQDDAtFYXN5LVJTQSBDQTAeFw0yNDA1MTQxMjAzMDFaFw0zNDA1MTIx
MjAzMDFaMA8xDTALBgNVBAMMBHRlc3QwggEiMA0GCSqGSIb3DQEBAQUAA4IBDwAw
ggEKAoIBAQCz0M1CLe6o+9hvYRdF64cbKBAkSAqN6QU3H44UIUDi/CS4z6OPM7++
WVoTuAR3bZ/ZBIapf2fbJf+i7KxnqJb6kJfsclrhvYQg8i/evZHaI/7smn1HkAiP
16CDOxe18uEPBdW16leF0lYV0+GOiKAOWbTjSIFtnnfr/nR8FRy/BKOh4M2OUkKf
BSEc0dv1/leNDF92vZS5CBQO193bC27PZq9uLuVL+4HqylxjsAHoY7Ry4kOCPLN9
vwFMFINH5SeixYai7tr5F1dyMVDNlWa3i2MYEduLZqs5jbD62htNoXgdHEWARpxP
EVrWLANxdMBggALZNAlhmcc/un/kRxeRAgMBAAGjgaIwgZ8wCQYDVR0TBAIwADAd
BgNVHQ4EFgQUT4f0kZq/5hKRaOnLD4pEoiWyF/kwUQYDVR0jBEowSIAUQPpvtHXt
pZiQCcFMRkF3K+kZmKihGqQYMBYxFDASBgNVBAMMC0Vhc3ktUlNBIENBghQ/kPWV
IAwZjZGBctSBe5KpA+vc9jATBgNVHSUEDDAKBggrBgEFBQcDAjALBgNVHQ8EBAMC
B4AwDQYJKoZIhvcNAQELBQADggEBAGsrJkwcR8LcK8GCFuyZrbm6xA91NhK7Sq1E
yUJklkLn8tjO/+wk54ncUTbgdh3BPCb/qR0N3cml2xQsQSwdvjMsDQ+GLlK+odFZ
iJIssi3tv70sJYG1PGpj7lsqeNXTNiZ2s+aOHgKd3vdPZO/JdYz0k7ntifT53zPu
I7AMcstczoNRzdf6HhZsUC4874C5vvf8hlvIOLU8tKfgdPdRYavC7qaBXtLHTCqX
Eds5FjC+xJORiJg7oSjOu9Yc1wQYUST2/F/FnJ2o9Mk2ILuN7acJ7CGXvEEetWQC
HlwV47asH2B1fs3GOa8GdZXXy/JswfMsnPKlVP/GL9ypGt5fGFI=
-----END CERTIFICATE-----
