Certificate:
    Data:
        Version: 3 (0x2)
        Serial Number:
            37:ed:a8:3d:2a:2c:a1:05:f5:ef:9a:2d:9a:6c:53:61
        Signature Algorithm: sha256WithRSAEncryption
        Issuer: CN=Easy-RSA CA
        Validity
            Not Before: May  9 06:22:35 2024 GMT
            Not After : May  7 06:22:35 2034 GMT
        Subject: CN=239f5dff7b474562f4b6524bf032472e
        Subject Public Key Info:
            Public Key Algorithm: rsaEncryption
                RSA Public-Key: (2048 bit)
                Modulus:
                    00:b5:97:34:f1:f4:d1:90:df:1a:97:22:9f:a9:d9:
                    86:95:0b:89:76:f3:5b:ab:41:12:ba:0e:96:3e:30:
                    57:56:c7:a2:0d:98:67:59:a7:d2:df:b9:4b:67:02:
                    d7:3d:f2:11:b8:ed:15:dc:bf:9f:2a:98:c8:f5:54:
                    7f:6b:53:cc:e4:be:2d:33:42:94:03:8d:51:88:b4:
                    2e:6c:0d:08:2b:ab:e4:07:5d:20:ec:85:43:ae:a2:
                    78:f1:9e:b0:2e:0d:c1:ad:5c:eb:25:00:b9:4b:d9:
                    fe:f1:d0:d6:4e:00:3a:4b:de:1d:d6:cf:d1:e2:6f:
                    75:e4:ed:78:b3:55:cc:b6:22:6c:d6:93:c6:16:60:
                    2a:13:bd:7d:82:f5:ea:31:84:ed:15:90:c1:4c:27:
                    ec:72:81:dd:3a:90:7a:b5:a7:cb:9b:d0:22:d9:34:
                    83:e9:51:c3:eb:c3:3f:d9:4c:8e:06:b0:74:b0:56:
                    b7:e2:15:96:17:91:76:7d:b5:65:88:b8:2d:8c:31:
                    15:81:68:d0:ef:f1:8e:50:bc:17:04:63:98:c9:23:
                    81:95:90:01:29:11:f7:28:62:75:8b:74:6d:39:ae:
                    34:8a:0b:aa:3a:18:a1:ad:f9:7a:10:18:e7:81:a6:
                    d4:6a:ee:31:57:37:77:14:5f:56:41:70:11:b6:20:
                    0e:03
                Exponent: 65537 (0x10001)
        X509v3 extensions:
            X509v3 Basic Constraints: 
                CA:FALSE
            X509v3 Subject Key Identifier: 
                48:44:90:6B:DD:07:75:B7:14:E3:BA:F1:4D:20:A6:70:08:24:88:4E
            X509v3 Authority Key Identifier: 
                keyid:40:FA:6F:B4:75:ED:A5:98:90:09:C1:4C:46:41:77:2B:E9:19:98:A8
                DirName:/CN=Easy-RSA CA
                serial:3F:90:F5:95:20:0C:19:8D:91:81:72:D4:81:7B:92:A9:03:EB:DC:F6

            X509v3 Extended Key Usage: 
                TLS Web Client Authentication
            X509v3 Key Usage: 
                Digital Signature
    Signature Algorithm: sha256WithRSAEncryption
         29:dc:6b:82:72:ff:1c:e1:b2:bc:9f:9f:b7:f5:bc:2d:2e:47:
         db:9c:ab:5a:e8:12:31:eb:a5:cc:2e:65:c3:ce:07:45:ef:3a:
         4d:38:08:93:11:4b:34:55:89:4d:b7:8a:f3:73:f1:56:8c:59:
         e9:a4:c3:14:d2:b4:36:3a:de:1d:9a:8e:72:ca:bb:37:90:26:
         02:9e:14:5b:eb:ad:4e:cf:31:af:a0:6c:e3:bd:77:41:d5:2f:
         e7:8e:3f:a5:be:76:6e:49:71:ac:1a:5a:19:18:47:3d:9b:2a:
         bd:43:ab:da:9e:ec:8e:5d:ce:3d:65:63:65:fe:c2:47:f9:d0:
         10:c8:50:a6:55:e2:b0:b0:00:27:c9:2d:fa:c8:ba:a2:f2:8a:
         65:db:5b:b7:bb:11:09:64:94:14:50:c6:31:b5:68:d4:39:24:
         cc:49:83:c9:2b:ef:0f:b1:65:62:39:bf:19:85:c8:25:d0:b5:
         cb:f6:6a:88:8a:63:d2:47:18:b1:05:b3:69:37:f6:23:6b:d0:
         e6:2b:5e:a0:f8:19:54:4b:cb:05:a0:8b:9e:2c:5a:67:46:49:
         b3:a1:53:ba:23:6c:66:35:11:0b:ea:cb:71:dc:63:be:ee:7b:
         c4:a7:98:e7:d1:04:49:97:ac:2d:53:35:9d:e1:4c:9f:27:60:
         60:71:13:17
-----BEGIN CERTIFICATE-----
MIIDbjCCAlagAwIBAgIQN+2oPSosoQX175otmmxTYTANBgkqhkiG9w0BAQsFADAW
MRQwEgYDVQQDDAtFYXN5LVJTQSBDQTAeFw0yNDA1MDkwNjIyMzVaFw0zNDA1MDcw
NjIyMzVaMCsxKTAnBgNVBAMMIDIzOWY1ZGZmN2I0NzQ1NjJmNGI2NTI0YmYwMzI0
NzJlMIIBIjANBgkqhkiG9w0BAQEFAAOCAQ8AMIIBCgKCAQEAtZc08fTRkN8alyKf
qdmGlQuJdvNbq0ESug6WPjBXVseiDZhnWafS37lLZwLXPfIRuO0V3L+fKpjI9VR/
a1PM5L4tM0KUA41RiLQubA0IK6vkB10g7IVDrqJ48Z6wLg3BrVzrJQC5S9n+8dDW
TgA6S94d1s/R4m915O14s1XMtiJs1pPGFmAqE719gvXqMYTtFZDBTCfscoHdOpB6
tafLm9Ai2TSD6VHD68M/2UyOBrB0sFa34hWWF5F2fbVliLgtjDEVgWjQ7/GOULwX
BGOYySOBlZABKRH3KGJ1i3RtOa40iguqOhihrfl6EBjngabUau4xVzd3FF9WQXAR
tiAOAwIDAQABo4GiMIGfMAkGA1UdEwQCMAAwHQYDVR0OBBYEFEhEkGvdB3W3FOO6
8U0gpnAIJIhOMFEGA1UdIwRKMEiAFED6b7R17aWYkAnBTEZBdyvpGZiooRqkGDAW
MRQwEgYDVQQDDAtFYXN5LVJTQSBDQYIUP5D1lSAMGY2RgXLUgXuSqQPr3PYwEwYD
VR0lBAwwCgYIKwYBBQUHAwIwCwYDVR0PBAQDAgeAMA0GCSqGSIb3DQEBCwUAA4IB
AQAp3GuCcv8c4bK8n5+39bwtLkfbnKta6BIx66XMLmXDzgdF7zpNOAiTEUs0VYlN
t4rzc/FWjFnppMMU0rQ2Ot4dmo5yyrs3kCYCnhRb661OzzGvoGzjvXdB1S/njj+l
vnZuSXGsGloZGEc9myq9Q6vanuyOXc49ZWNl/sJH+dAQyFCmVeKwsAAnyS36yLqi
8opl21u3uxEJZJQUUMYxtWjUOSTMSYPJK+8PsWViOb8Zhcgl0LXL9mqIimPSRxix
BbNpN/Yja9DmK16g+BlUS8sFoIueLFpnRkmzoVO6I2xmNREL6stx3GO+7nvEp5jn
0QRJl6wtUzWd4UyfJ2BgcRMX
-----END CERTIFICATE-----
