Certificate:
    Data:
        Version: 3 (0x2)
        Serial Number:
            3c:b0:d7:bb:2b:72:a1:12:26:23:4d:e1:d8:a2:4f:4d
        Signature Algorithm: sha256WithRSAEncryption
        Issuer: CN=Easy-RSA CA
        Validity
            Not Before: May  8 08:54:15 2024 GMT
            Not After : May  6 08:54:15 2034 GMT
        Subject: CN=239f5dff7b474562f4b6524bf032472e
        Subject Public Key Info:
            Public Key Algorithm: rsaEncryption
                RSA Public-Key: (2048 bit)
                Modulus:
                    00:b5:97:34:f1:f4:d1:90:df:1a:97:22:9f:a9:d9:
                    86:95:0b:89:76:f3:5b:ab:41:12:ba:0e:96:3e:30:
                    57:56:c7:a2:0d:98:67:59:a7:d2:df:b9:4b:67:02:
                    d7:3d:f2:11:b8:ed:15:dc:bf:9f:2a:98:c8:f5:54:
                    7f:6b:53:cc:e4:be:2d:33:42:94:03:8d:51:88:b4:
                    2e:6c:0d:08:2b:ab:e4:07:5d:20:ec:85:43:ae:a2:
                    78:f1:9e:b0:2e:0d:c1:ad:5c:eb:25:00:b9:4b:d9:
                    fe:f1:d0:d6:4e:00:3a:4b:de:1d:d6:cf:d1:e2:6f:
                    75:e4:ed:78:b3:55:cc:b6:22:6c:d6:93:c6:16:60:
                    2a:13:bd:7d:82:f5:ea:31:84:ed:15:90:c1:4c:27:
                    ec:72:81:dd:3a:90:7a:b5:a7:cb:9b:d0:22:d9:34:
                    83:e9:51:c3:eb:c3:3f:d9:4c:8e:06:b0:74:b0:56:
                    b7:e2:15:96:17:91:76:7d:b5:65:88:b8:2d:8c:31:
                    15:81:68:d0:ef:f1:8e:50:bc:17:04:63:98:c9:23:
                    81:95:90:01:29:11:f7:28:62:75:8b:74:6d:39:ae:
                    34:8a:0b:aa:3a:18:a1:ad:f9:7a:10:18:e7:81:a6:
                    d4:6a:ee:31:57:37:77:14:5f:56:41:70:11:b6:20:
                    0e:03
                Exponent: 65537 (0x10001)
        X509v3 extensions:
            X509v3 Basic Constraints: 
                CA:FALSE
            X509v3 Subject Key Identifier: 
                48:44:90:6B:DD:07:75:B7:14:E3:BA:F1:4D:20:A6:70:08:24:88:4E
            X509v3 Authority Key Identifier: 
                keyid:40:FA:6F:B4:75:ED:A5:98:90:09:C1:4C:46:41:77:2B:E9:19:98:A8
                DirName:/CN=Easy-RSA CA
                serial:3F:90:F5:95:20:0C:19:8D:91:81:72:D4:81:7B:92:A9:03:EB:DC:F6

            X509v3 Extended Key Usage: 
                TLS Web Client Authentication
            X509v3 Key Usage: 
                Digital Signature
    Signature Algorithm: sha256WithRSAEncryption
         b9:92:d3:45:fb:66:0f:78:1b:b3:e9:63:5d:74:cb:ac:31:b9:
         31:df:d0:1e:33:65:da:d6:2d:bf:2b:0e:a0:20:ed:1a:d4:38:
         b2:57:1b:6f:29:ad:65:f8:61:d3:a2:5e:e4:79:48:4c:79:4a:
         ef:58:c1:3f:0b:63:10:bb:35:e4:cd:a2:28:1d:e0:9a:8d:12:
         09:c5:9e:57:b5:ce:12:f7:6a:01:eb:24:7a:7e:7c:60:93:84:
         cc:bc:46:2a:04:64:ac:74:e1:12:c0:53:d7:c7:13:58:18:97:
         f5:60:c1:87:64:ad:63:46:0b:15:37:7c:fa:c8:21:6a:40:8f:
         f8:79:53:e8:bc:82:1e:d9:46:b4:35:10:92:99:f3:49:47:d5:
         cb:67:9f:6d:0c:e7:d0:df:26:55:a9:ea:67:d3:d7:43:aa:c7:
         54:d2:d8:76:c8:a6:85:23:0d:59:6f:fc:eb:56:87:03:7a:32:
         e3:0e:06:57:cf:99:03:f3:ef:b3:d9:a5:62:ec:fc:14:26:0e:
         e4:29:1d:01:f5:17:da:b4:d5:79:82:9b:bd:ac:89:57:00:77:
         b2:4a:50:41:d9:3b:f8:d1:e7:4d:34:de:98:bb:9f:a6:50:a1:
         0a:e5:07:5d:5f:d6:72:27:ab:f6:ef:e3:de:18:1f:de:9b:67:
         37:4e:cc:f5
-----BEGIN CERTIFICATE-----
MIIDbjCCAlagAwIBAgIQPLDXuytyoRImI03h2KJPTTANBgkqhkiG9w0BAQsFADAW
MRQwEgYDVQQDDAtFYXN5LVJTQSBDQTAeFw0yNDA1MDgwODU0MTVaFw0zNDA1MDYw
ODU0MTVaMCsxKTAnBgNVBAMMIDIzOWY1ZGZmN2I0NzQ1NjJmNGI2NTI0YmYwMzI0
NzJlMIIBIjANBgkqhkiG9w0BAQEFAAOCAQ8AMIIBCgKCAQEAtZc08fTRkN8alyKf
qdmGlQuJdvNbq0ESug6WPjBXVseiDZhnWafS37lLZwLXPfIRuO0V3L+fKpjI9VR/
a1PM5L4tM0KUA41RiLQubA0IK6vkB10g7IVDrqJ48Z6wLg3BrVzrJQC5S9n+8dDW
TgA6S94d1s/R4m915O14s1XMtiJs1pPGFmAqE719gvXqMYTtFZDBTCfscoHdOpB6
tafLm9Ai2TSD6VHD68M/2UyOBrB0sFa34hWWF5F2fbVliLgtjDEVgWjQ7/GOULwX
BGOYySOBlZABKRH3KGJ1i3RtOa40iguqOhihrfl6EBjngabUau4xVzd3FF9WQXAR
tiAOAwIDAQABo4GiMIGfMAkGA1UdEwQCMAAwHQYDVR0OBBYEFEhEkGvdB3W3FOO6
8U0gpnAIJIhOMFEGA1UdIwRKMEiAFED6b7R17aWYkAnBTEZBdyvpGZiooRqkGDAW
MRQwEgYDVQQDDAtFYXN5LVJTQSBDQYIUP5D1lSAMGY2RgXLUgXuSqQPr3PYwEwYD
VR0lBAwwCgYIKwYBBQUHAwIwCwYDVR0PBAQDAgeAMA0GCSqGSIb3DQEBCwUAA4IB
AQC5ktNF+2YPeBuz6WNddMusMbkx39AeM2Xa1i2/Kw6gIO0a1DiyVxtvKa1l+GHT
ol7keUhMeUrvWME/C2MQuzXkzaIoHeCajRIJxZ5Xtc4S92oB6yR6fnxgk4TMvEYq
BGSsdOESwFPXxxNYGJf1YMGHZK1jRgsVN3z6yCFqQI/4eVPovIIe2Ua0NRCSmfNJ
R9XLZ59tDOfQ3yZVqepn09dDqsdU0th2yKaFIw1Zb/zrVocDejLjDgZXz5kD8++z
2aVi7PwUJg7kKR0B9RfatNV5gpu9rIlXAHeySlBB2Tv40edNNN6Yu5+mUKEK5Qdd
X9ZyJ6v27+PeGB/em2c3Tsz1
-----END CERTIFICATE-----
