Certificate:
    Data:
        Version: 3 (0x2)
        Serial Number:
            3e:5c:69:ab:63:b5:00:0d:f9:78:a9:f4:eb:92:7d:dc
        Signature Algorithm: sha256WithRSAEncryption
        Issuer: CN=Easy-RSA CA
        Validity
            Not Before: May  8 08:52:37 2024 GMT
            Not After : May  6 08:52:37 2034 GMT
        Subject: CN=239f5dff7b474562f4b6524bf032472e
        Subject Public Key Info:
            Public Key Algorithm: rsaEncryption
                RSA Public-Key: (2048 bit)
                Modulus:
                    00:b5:97:34:f1:f4:d1:90:df:1a:97:22:9f:a9:d9:
                    86:95:0b:89:76:f3:5b:ab:41:12:ba:0e:96:3e:30:
                    57:56:c7:a2:0d:98:67:59:a7:d2:df:b9:4b:67:02:
                    d7:3d:f2:11:b8:ed:15:dc:bf:9f:2a:98:c8:f5:54:
                    7f:6b:53:cc:e4:be:2d:33:42:94:03:8d:51:88:b4:
                    2e:6c:0d:08:2b:ab:e4:07:5d:20:ec:85:43:ae:a2:
                    78:f1:9e:b0:2e:0d:c1:ad:5c:eb:25:00:b9:4b:d9:
                    fe:f1:d0:d6:4e:00:3a:4b:de:1d:d6:cf:d1:e2:6f:
                    75:e4:ed:78:b3:55:cc:b6:22:6c:d6:93:c6:16:60:
                    2a:13:bd:7d:82:f5:ea:31:84:ed:15:90:c1:4c:27:
                    ec:72:81:dd:3a:90:7a:b5:a7:cb:9b:d0:22:d9:34:
                    83:e9:51:c3:eb:c3:3f:d9:4c:8e:06:b0:74:b0:56:
                    b7:e2:15:96:17:91:76:7d:b5:65:88:b8:2d:8c:31:
                    15:81:68:d0:ef:f1:8e:50:bc:17:04:63:98:c9:23:
                    81:95:90:01:29:11:f7:28:62:75:8b:74:6d:39:ae:
                    34:8a:0b:aa:3a:18:a1:ad:f9:7a:10:18:e7:81:a6:
                    d4:6a:ee:31:57:37:77:14:5f:56:41:70:11:b6:20:
                    0e:03
                Exponent: 65537 (0x10001)
        X509v3 extensions:
            X509v3 Basic Constraints: 
                CA:FALSE
            X509v3 Subject Key Identifier: 
                48:44:90:6B:DD:07:75:B7:14:E3:BA:F1:4D:20:A6:70:08:24:88:4E
            X509v3 Authority Key Identifier: 
                keyid:40:FA:6F:B4:75:ED:A5:98:90:09:C1:4C:46:41:77:2B:E9:19:98:A8
                DirName:/CN=Easy-RSA CA
                serial:3F:90:F5:95:20:0C:19:8D:91:81:72:D4:81:7B:92:A9:03:EB:DC:F6

            X509v3 Extended Key Usage: 
                TLS Web Client Authentication
            X509v3 Key Usage: 
                Digital Signature
    Signature Algorithm: sha256WithRSAEncryption
         cb:b6:fd:49:46:05:ae:ec:2b:2e:09:3b:05:a4:32:fe:96:aa:
         a9:c8:93:3a:24:3e:97:b5:0a:a8:19:ed:34:c0:8c:db:4d:d5:
         e6:f1:6a:cc:3a:fb:4f:93:76:af:57:a6:33:39:e8:29:3a:0f:
         d3:dc:a8:0d:a9:3b:81:07:e8:8c:d8:4c:c3:26:66:68:a4:f2:
         d5:d8:92:f8:5b:4c:dc:44:c8:16:11:73:a6:c7:b6:82:40:68:
         03:c5:0c:c0:fe:a3:e6:e4:85:3e:95:32:31:33:a2:07:b5:72:
         22:ec:be:03:21:8d:e0:c0:74:e2:3a:9b:16:2d:48:e9:b0:47:
         4f:b3:5b:69:63:21:3a:b0:d7:4d:d5:0c:aa:a2:e1:9e:7e:03:
         43:33:4e:19:e7:54:a8:47:1c:11:10:1e:8f:ee:ad:72:5d:0a:
         5f:63:72:df:de:d4:a3:61:7c:99:ec:4b:f7:cc:cd:ed:c8:fc:
         ba:c3:2d:85:a4:19:bd:7a:e5:05:73:0e:b9:d4:cd:e0:7f:cc:
         c7:87:de:ae:38:ee:8f:8a:80:04:65:f9:37:d6:ab:4d:41:0d:
         9d:86:a7:07:8e:90:f3:f1:34:15:4a:53:b1:41:dd:6a:f8:f8:
         f3:3b:2e:3b:30:d4:6a:1f:a7:c3:98:fe:fb:66:0a:2d:89:3c:
         ce:c5:da:a7
-----BEGIN CERTIFICATE-----
MIIDbjCCAlagAwIBAgIQPlxpq2O1AA35eKn065J93DANBgkqhkiG9w0BAQsFADAW
MRQwEgYDVQQDDAtFYXN5LVJTQSBDQTAeFw0yNDA1MDgwODUyMzdaFw0zNDA1MDYw
ODUyMzdaMCsxKTAnBgNVBAMMIDIzOWY1ZGZmN2I0NzQ1NjJmNGI2NTI0YmYwMzI0
NzJlMIIBIjANBgkqhkiG9w0BAQEFAAOCAQ8AMIIBCgKCAQEAtZc08fTRkN8alyKf
qdmGlQuJdvNbq0ESug6WPjBXVseiDZhnWafS37lLZwLXPfIRuO0V3L+fKpjI9VR/
a1PM5L4tM0KUA41RiLQubA0IK6vkB10g7IVDrqJ48Z6wLg3BrVzrJQC5S9n+8dDW
TgA6S94d1s/R4m915O14s1XMtiJs1pPGFmAqE719gvXqMYTtFZDBTCfscoHdOpB6
tafLm9Ai2TSD6VHD68M/2UyOBrB0sFa34hWWF5F2fbVliLgtjDEVgWjQ7/GOULwX
BGOYySOBlZABKRH3KGJ1i3RtOa40iguqOhihrfl6EBjngabUau4xVzd3FF9WQXAR
tiAOAwIDAQABo4GiMIGfMAkGA1UdEwQCMAAwHQYDVR0OBBYEFEhEkGvdB3W3FOO6
8U0gpnAIJIhOMFEGA1UdIwRKMEiAFED6b7R17aWYkAnBTEZBdyvpGZiooRqkGDAW
MRQwEgYDVQQDDAtFYXN5LVJTQSBDQYIUP5D1lSAMGY2RgXLUgXuSqQPr3PYwEwYD
VR0lBAwwCgYIKwYBBQUHAwIwCwYDVR0PBAQDAgeAMA0GCSqGSIb3DQEBCwUAA4IB
AQDLtv1JRgWu7CsuCTsFpDL+lqqpyJM6JD6XtQqoGe00wIzbTdXm8WrMOvtPk3av
V6YzOegpOg/T3KgNqTuBB+iM2EzDJmZopPLV2JL4W0zcRMgWEXOmx7aCQGgDxQzA
/qPm5IU+lTIxM6IHtXIi7L4DIY3gwHTiOpsWLUjpsEdPs1tpYyE6sNdN1QyqouGe
fgNDM04Z51SoRxwREB6P7q1yXQpfY3Lf3tSjYXyZ7Ev3zM3tyPy6wy2FpBm9euUF
cw651M3gf8zHh96uOO6PioAEZfk31qtNQQ2dhqcHjpDz8TQVSlOxQd1q+PjzOy47
MNRqH6fDmP77ZgotiTzOxdqn
-----END CERTIFICATE-----
