Certificate:
    Data:
        Version: 3 (0x2)
        Serial Number:
            3f:14:58:e1:b0:46:94:39:a5:9c:f5:23:f0:81:e2:1c
        Signature Algorithm: sha256WithRSAEncryption
        Issuer: CN=Easy-RSA CA
        Validity
            Not Before: May  8 04:32:02 2024 GMT
            Not After : May  6 04:32:02 2034 GMT
        Subject: CN=c8eafb69f87665b576846722b6f0b55e
        Subject Public Key Info:
            Public Key Algorithm: rsaEncryption
                RSA Public-Key: (2048 bit)
                Modulus:
                    00:92:df:a7:ff:fd:36:40:03:94:9c:29:d3:e3:ae:
                    57:c0:7d:b7:c2:83:75:07:10:3e:de:c4:af:98:9e:
                    e3:3c:f7:ce:ff:b6:8c:03:cd:8a:d6:c2:27:16:ed:
                    3d:e7:02:a4:b7:d8:83:d8:cb:8d:22:46:c3:8a:3b:
                    dd:a2:20:48:e2:55:0b:b3:ac:c4:c6:89:a0:5d:3c:
                    64:ac:3c:9b:23:64:01:4f:1f:77:ec:bc:91:55:43:
                    00:13:6d:ed:79:88:72:46:6b:71:61:f7:e6:4b:38:
                    89:49:45:13:96:61:05:ed:9d:a6:d5:b5:21:14:77:
                    7e:c8:c2:86:3a:e4:dc:9e:e0:02:1d:4a:8b:f2:ab:
                    fb:8f:ef:c1:ac:6e:70:5c:fe:5e:8e:ea:9d:ee:44:
                    2f:f1:f7:ec:1c:e4:c0:9d:9e:0b:d5:14:70:68:0e:
                    ec:5a:83:22:14:3e:22:00:d3:4a:b7:cf:db:92:fd:
                    03:fe:6e:ba:c9:6c:f2:5b:cf:c0:24:e4:0d:8f:2b:
                    d7:75:cd:fd:e3:33:38:f3:e1:59:d3:5e:bf:c6:02:
                    a9:bb:02:1b:04:d9:b5:8c:e4:31:aa:3e:cf:44:d1:
                    1c:40:ad:86:c8:df:18:38:2e:bf:9d:9f:dd:42:cd:
                    cc:69:9c:7d:82:0d:82:eb:a1:d1:00:e9:d8:8f:d5:
                    f2:e1
                Exponent: 65537 (0x10001)
        X509v3 extensions:
            X509v3 Basic Constraints: 
                CA:FALSE
            X509v3 Subject Key Identifier: 
                56:B7:BF:C0:D5:DF:AC:EC:C3:05:B2:8A:31:50:EB:CA:69:90:E9:29
            X509v3 Authority Key Identifier: 
                keyid:40:FA:6F:B4:75:ED:A5:98:90:09:C1:4C:46:41:77:2B:E9:19:98:A8
                DirName:/CN=Easy-RSA CA
                serial:3F:90:F5:95:20:0C:19:8D:91:81:72:D4:81:7B:92:A9:03:EB:DC:F6

            X509v3 Extended Key Usage: 
                TLS Web Client Authentication
            X509v3 Key Usage: 
                Digital Signature
    Signature Algorithm: sha256WithRSAEncryption
         bb:2a:74:fc:bd:9b:a3:31:c0:73:c6:69:24:14:e4:dd:5e:e0:
         32:f9:ea:78:ab:56:e4:8a:8c:ea:d8:eb:d9:c8:0c:81:30:39:
         7e:81:68:4f:7e:ff:86:27:4a:0c:15:eb:e8:0a:79:31:f4:f8:
         3f:21:c0:a6:34:68:65:b8:78:02:36:9e:48:c8:49:ce:18:a7:
         1c:d2:be:f1:38:16:70:61:b6:7b:ee:33:76:fa:d2:c0:7e:74:
         8e:17:d3:4f:d8:f8:eb:02:b2:23:d3:0c:7e:7e:76:93:90:99:
         45:5b:32:ab:ca:57:f6:5b:02:dc:9e:90:58:e8:d1:b0:f9:4d:
         f0:79:55:8e:7f:15:8a:45:b9:9a:19:56:f3:b6:8f:17:32:e9:
         ac:78:04:d6:8b:c8:5f:35:34:1d:66:e9:10:7f:56:56:f0:b8:
         65:44:1e:91:29:91:2c:27:16:85:b2:dc:ff:f2:ec:bb:6a:78:
         7a:67:63:fd:e9:27:ee:2c:e8:07:02:9f:f0:e6:42:d3:f9:2a:
         df:00:f7:47:e3:ec:26:23:31:f2:95:f0:ed:32:53:52:7d:d1:
         b5:da:6d:28:b1:90:c9:77:5f:2f:79:fd:31:a2:19:9f:9e:85:
         eb:58:79:c2:b6:b9:74:94:25:24:cd:f0:8d:f7:9f:f3:1e:e1:
         bb:e4:10:84
-----BEGIN CERTIFICATE-----
MIIDbjCCAlagAwIBAgIQPxRY4bBGlDmlnPUj8IHiHDANBgkqhkiG9w0BAQsFADAW
MRQwEgYDVQQDDAtFYXN5LVJTQSBDQTAeFw0yNDA1MDgwNDMyMDJaFw0zNDA1MDYw
NDMyMDJaMCsxKTAnBgNVBAMMIGM4ZWFmYjY5Zjg3NjY1YjU3Njg0NjcyMmI2ZjBi
NTVlMIIBIjANBgkqhkiG9w0BAQEFAAOCAQ8AMIIBCgKCAQEAkt+n//02QAOUnCnT
465XwH23woN1BxA+3sSvmJ7jPPfO/7aMA82K1sInFu095wKkt9iD2MuNIkbDijvd
oiBI4lULs6zExomgXTxkrDybI2QBTx937LyRVUMAE23teYhyRmtxYffmSziJSUUT
lmEF7Z2m1bUhFHd+yMKGOuTcnuACHUqL8qv7j+/BrG5wXP5ejuqd7kQv8ffsHOTA
nZ4L1RRwaA7sWoMiFD4iANNKt8/bkv0D/m66yWzyW8/AJOQNjyvXdc394zM48+FZ
016/xgKpuwIbBNm1jOQxqj7PRNEcQK2GyN8YOC6/nZ/dQs3MaZx9gg2C66HRAOnY
j9Xy4QIDAQABo4GiMIGfMAkGA1UdEwQCMAAwHQYDVR0OBBYEFFa3v8DV36zswwWy
ijFQ68ppkOkpMFEGA1UdIwRKMEiAFED6b7R17aWYkAnBTEZBdyvpGZiooRqkGDAW
MRQwEgYDVQQDDAtFYXN5LVJTQSBDQYIUP5D1lSAMGY2RgXLUgXuSqQPr3PYwEwYD
VR0lBAwwCgYIKwYBBQUHAwIwCwYDVR0PBAQDAgeAMA0GCSqGSIb3DQEBCwUAA4IB
AQC7KnT8vZujMcBzxmkkFOTdXuAy+ep4q1bkiozq2OvZyAyBMDl+gWhPfv+GJ0oM
FevoCnkx9Pg/IcCmNGhluHgCNp5IyEnOGKcc0r7xOBZwYbZ77jN2+tLAfnSOF9NP
2PjrArIj0wx+fnaTkJlFWzKrylf2WwLcnpBY6NGw+U3weVWOfxWKRbmaGVbzto8X
MumseATWi8hfNTQdZukQf1ZW8LhlRB6RKZEsJxaFstz/8uy7anh6Z2P96SfuLOgH
Ap/w5kLT+SrfAPdH4+wmIzHylfDtMlNSfdG12m0osZDJd18vef0xohmfnoXrWHnC
trl0lCUkzfCN95/zHuG75BCE
-----END CERTIFICATE-----
