Certificate:
    Data:
        Version: 3 (0x2)
        Serial Number:
            4d:3c:b7:e2:1c:47:39:f4:6f:a4:9b:c7:c6:8e:72:b9
        Signature Algorithm: sha256WithRSAEncryption
        Issuer: CN=Easy-RSA CA
        Validity
            Not Before: May 15 02:24:51 2024 GMT
            Not After : May 13 02:24:51 2034 GMT
        Subject: CN=f61f192d155e6f683a30f7e34bc018d8
        Subject Public Key Info:
            Public Key Algorithm: rsaEncryption
                Public-Key: (2048 bit)
                Modulus:
                    00:ca:f7:af:85:0c:a8:d8:47:74:b1:33:79:5c:ae:
                    a0:99:27:ef:92:d8:7c:f0:c4:dc:70:56:33:ec:b1:
                    ed:c5:a0:ea:9f:b0:55:96:7c:3d:47:94:45:27:40:
                    ea:3d:5d:91:e1:29:28:7e:7a:ac:4c:a2:2c:aa:87:
                    cd:33:47:a1:8d:af:a3:3d:14:f5:cb:b5:85:e5:5e:
                    24:f1:83:a8:73:56:9e:fe:64:47:d7:7c:08:52:8c:
                    c1:1f:d7:33:3a:01:bb:a1:c4:1e:4c:5f:1a:f2:3a:
                    3e:88:34:7c:c1:4e:3b:03:f3:9a:e4:56:c9:07:bc:
                    88:6a:48:df:5d:09:48:fd:a1:9e:fd:0a:fe:b5:b7:
                    81:e7:e8:15:a2:3f:24:d2:db:a1:01:21:ca:c1:f2:
                    95:49:b9:5e:cd:68:75:c2:e5:f2:72:bd:4c:76:50:
                    53:84:54:11:bd:03:ca:7d:b5:bd:b4:b6:1c:6e:a5:
                    bb:f7:f2:42:7d:ca:6a:f9:29:2a:26:97:10:02:b9:
                    22:2c:78:da:c3:bd:03:74:1c:f8:2f:da:88:27:f0:
                    db:5b:da:b8:07:de:ca:08:d3:f3:c5:80:02:25:db:
                    11:fa:5a:7b:bb:5a:4c:18:5d:6b:a3:d5:00:96:01:
                    22:e6:66:d5:99:b0:c5:54:18:14:c0:45:1b:37:6b:
                    42:03
                Exponent: 65537 (0x10001)
        X509v3 extensions:
            X509v3 Basic Constraints: 
                CA:FALSE
            X509v3 Subject Key Identifier: 
                A0:F3:C0:7A:5F:E3:E1:1D:C4:04:A8:DE:1E:98:24:85:B0:8C:BE:23
            X509v3 Authority Key Identifier: 
                keyid:40:FA:6F:B4:75:ED:A5:98:90:09:C1:4C:46:41:77:2B:E9:19:98:A8
                DirName:/CN=Easy-RSA CA
                serial:3F:90:F5:95:20:0C:19:8D:91:81:72:D4:81:7B:92:A9:03:EB:DC:F6
            X509v3 Extended Key Usage: 
                TLS Web Client Authentication
            X509v3 Key Usage: 
                Digital Signature
    Signature Algorithm: sha256WithRSAEncryption
    Signature Value:
        c8:b9:6c:64:6c:8e:a2:d7:f0:e9:8b:13:da:a9:20:0c:a1:a3:
        fc:28:f3:7b:9b:ac:33:36:9b:ac:47:d7:a5:47:67:84:9c:72:
        d4:3a:e4:9a:04:03:98:04:6e:d5:c9:44:4b:d9:69:1e:81:df:
        f9:b3:33:d9:e9:3c:2e:36:9f:f6:c5:ca:f0:30:c8:4b:68:5c:
        53:4d:27:44:11:e6:74:55:fc:9c:8d:c2:0f:00:f1:e4:38:78:
        0c:47:f8:43:b9:c3:1c:b6:9e:47:63:7e:a6:b4:53:f6:4e:3b:
        6c:be:31:70:a9:75:bb:73:0b:f0:6e:9e:42:7e:6e:31:a0:e3:
        84:cb:99:79:99:65:02:7d:b5:e7:6d:78:7a:97:95:1d:a2:eb:
        e9:17:a0:e5:f0:92:0e:0f:3b:9d:44:60:a9:32:cc:71:c2:db:
        22:b7:de:4b:f1:29:b8:73:8f:c3:29:96:d2:9f:a0:68:d2:8b:
        bf:8d:ac:53:83:bc:1c:a0:ea:25:b7:07:d7:7f:20:29:35:fb:
        69:60:99:28:b7:9a:fe:6f:6d:b1:94:c1:ec:06:41:b6:03:6f:
        ed:68:7b:ac:93:3c:47:06:e0:89:fc:0c:a0:e2:4e:d7:a7:4b:
        a8:32:8c:86:7c:be:6d:23:d2:23:3d:3e:00:47:14:6c:36:2e:
        a8:11:4a:54
-----BEGIN CERTIFICATE-----
MIIDbjCCAlagAwIBAgIQTTy34hxHOfRvpJvHxo5yuTANBgkqhkiG9w0BAQsFADAW
MRQwEgYDVQQDDAtFYXN5LVJTQSBDQTAeFw0yNDA1MTUwMjI0NTFaFw0zNDA1MTMw
MjI0NTFaMCsxKTAnBgNVBAMMIGY2MWYxOTJkMTU1ZTZmNjgzYTMwZjdlMzRiYzAx
OGQ4MIIBIjANBgkqhkiG9w0BAQEFAAOCAQ8AMIIBCgKCAQEAyvevhQyo2Ed0sTN5
XK6gmSfvkth88MTccFYz7LHtxaDqn7BVlnw9R5RFJ0DqPV2R4SkofnqsTKIsqofN
M0ehja+jPRT1y7WF5V4k8YOoc1ae/mRH13wIUozBH9czOgG7ocQeTF8a8jo+iDR8
wU47A/Oa5FbJB7yIakjfXQlI/aGe/Qr+tbeB5+gVoj8k0tuhASHKwfKVSblezWh1
wuXycr1MdlBThFQRvQPKfbW9tLYcbqW79/JCfcpq+SkqJpcQArkiLHjaw70DdBz4
L9qIJ/DbW9q4B97KCNPzxYACJdsR+lp7u1pMGF1ro9UAlgEi5mbVmbDFVBgUwEUb
N2tCAwIDAQABo4GiMIGfMAkGA1UdEwQCMAAwHQYDVR0OBBYEFKDzwHpf4+EdxASo
3h6YJIWwjL4jMFEGA1UdIwRKMEiAFED6b7R17aWYkAnBTEZBdyvpGZiooRqkGDAW
MRQwEgYDVQQDDAtFYXN5LVJTQSBDQYIUP5D1lSAMGY2RgXLUgXuSqQPr3PYwEwYD
VR0lBAwwCgYIKwYBBQUHAwIwCwYDVR0PBAQDAgeAMA0GCSqGSIb3DQEBCwUAA4IB
AQDIuWxkbI6i1/DpixPaqSAMoaP8KPN7m6wzNpusR9elR2eEnHLUOuSaBAOYBG7V
yURL2Wkegd/5szPZ6TwuNp/2xcrwMMhLaFxTTSdEEeZ0VfycjcIPAPHkOHgMR/hD
ucMctp5HY36mtFP2TjtsvjFwqXW7cwvwbp5Cfm4xoOOEy5l5mWUCfbXnbXh6l5Ud
ouvpF6Dl8JIODzudRGCpMsxxwtsit95L8Sm4c4/DKZbSn6Bo0ou/jaxTg7wcoOol
twfXfyApNftpYJkot5r+b22xlMHsBkG2A2/taHuskzxHBuCJ/Ayg4k7Xp0uoMoyG
fL5tI9IjPT4ARxRsNi6oEUpU
-----END CERTIFICATE-----
