Certificate:
    Data:
        Version: 3 (0x2)
        Serial Number:
            4e:55:e3:2b:cc:5a:12:26:ed:bf:37:21:9f:2c:04:14
        Signature Algorithm: sha256WithRSAEncryption
        Issuer: CN=Easy-RSA CA
        Validity
            Not Before: May 15 02:16:47 2024 GMT
            Not After : May 13 02:16:47 2034 GMT
        Subject: CN=d3bff8450106a52369b8b4dbca7b1b16
        Subject Public Key Info:
            Public Key Algorithm: rsaEncryption
                Public-Key: (2048 bit)
                Modulus:
                    00:8c:d1:57:49:50:9e:b1:e8:57:9d:6b:68:9e:f9:
                    74:09:3c:92:70:5f:5d:18:12:18:3f:39:71:93:e1:
                    5f:11:2b:5e:06:e0:04:51:45:91:6a:72:20:df:c1:
                    0c:24:30:2e:2c:a2:ef:b0:7a:2f:be:d6:56:a5:19:
                    41:c5:f0:3c:33:5e:c9:31:5f:f1:3e:a3:03:65:c9:
                    94:0b:f7:bc:2c:bf:15:d8:1f:95:19:41:ef:81:5d:
                    9b:63:a6:28:df:a2:38:d8:8c:70:ea:25:be:97:f6:
                    91:b7:38:14:35:fb:cf:ba:12:f9:55:67:e8:54:bc:
                    0e:44:ca:5d:b1:ca:5c:25:40:8f:53:72:61:14:58:
                    b4:ca:03:fa:1b:8d:3a:b1:bb:b5:e1:29:53:ef:86:
                    fd:e4:fb:20:7a:11:83:d1:31:54:6f:75:71:a9:a2:
                    ea:11:de:f7:7e:2b:c2:f2:18:2d:92:8e:4f:d4:a9:
                    4b:f3:40:c1:a7:f5:8a:58:60:4a:da:74:aa:1d:ef:
                    d3:88:19:90:26:39:1b:06:95:f2:1f:2a:ba:57:ba:
                    6b:74:40:a9:8c:e8:5b:f9:7d:81:29:a6:bd:65:df:
                    9a:d2:7d:0b:c1:99:99:6a:89:a7:8c:59:6a:06:f4:
                    8a:27:a4:87:d1:c1:16:fa:6f:14:83:87:2a:05:3e:
                    ae:fb
                Exponent: 65537 (0x10001)
        X509v3 extensions:
            X509v3 Basic Constraints: 
                CA:FALSE
            X509v3 Subject Key Identifier: 
                34:F9:4D:7A:D7:8B:3F:D8:AF:DE:35:3F:6E:F8:BE:78:02:E6:4A:A1
            X509v3 Authority Key Identifier: 
                keyid:40:FA:6F:B4:75:ED:A5:98:90:09:C1:4C:46:41:77:2B:E9:19:98:A8
                DirName:/CN=Easy-RSA CA
                serial:3F:90:F5:95:20:0C:19:8D:91:81:72:D4:81:7B:92:A9:03:EB:DC:F6
            X509v3 Extended Key Usage: 
                TLS Web Client Authentication
            X509v3 Key Usage: 
                Digital Signature
    Signature Algorithm: sha256WithRSAEncryption
    Signature Value:
        cf:49:e6:2d:c5:6d:01:f8:69:5e:ee:3b:8b:de:69:e1:bb:ef:
        aa:a6:e4:d7:17:a9:c3:f0:30:fd:a1:f0:eb:4a:a3:17:52:f2:
        82:66:58:39:03:84:56:d0:ed:13:6b:2b:2c:90:20:95:48:94:
        41:f4:0f:99:88:92:0c:3f:bd:75:b3:83:79:30:17:2e:54:83:
        fe:5e:77:5c:40:ec:17:7d:3c:bf:5a:50:4d:ad:89:ee:fe:56:
        e1:6d:06:e6:9a:5c:9c:6e:84:91:78:6f:8a:a0:30:d4:b3:c9:
        57:97:98:cc:27:9a:a6:61:5f:13:fa:2f:65:88:fc:70:c8:5d:
        ac:0a:85:1d:b3:bd:af:fb:83:4f:a0:78:c1:af:ec:22:a7:7f:
        c8:6f:2f:42:41:12:ef:1f:de:23:3a:99:65:7f:f6:e4:8e:3a:
        e9:81:4e:01:af:89:07:ff:a6:28:20:52:93:83:e6:a4:dd:b0:
        e2:34:67:bf:f3:f9:69:21:9b:46:91:dd:37:e4:78:b7:52:b3:
        b2:44:2e:61:00:37:c7:2b:51:ef:df:9b:c6:6e:cb:74:c7:bd:
        cd:fd:6b:b5:30:16:ab:6c:8d:c1:b2:8c:94:3d:33:68:e7:c6:
        c8:f6:d8:e9:f0:aa:73:75:dc:aa:88:e5:1f:40:a6:ca:10:f5:
        1a:a3:86:cd
-----BEGIN CERTIFICATE-----
MIIDbjCCAlagAwIBAgIQTlXjK8xaEibtvzchnywEFDANBgkqhkiG9w0BAQsFADAW
MRQwEgYDVQQDDAtFYXN5LVJTQSBDQTAeFw0yNDA1MTUwMjE2NDdaFw0zNDA1MTMw
MjE2NDdaMCsxKTAnBgNVBAMMIGQzYmZmODQ1MDEwNmE1MjM2OWI4YjRkYmNhN2Ix
YjE2MIIBIjANBgkqhkiG9w0BAQEFAAOCAQ8AMIIBCgKCAQEAjNFXSVCesehXnWto
nvl0CTyScF9dGBIYPzlxk+FfESteBuAEUUWRanIg38EMJDAuLKLvsHovvtZWpRlB
xfA8M17JMV/xPqMDZcmUC/e8LL8V2B+VGUHvgV2bY6Yo36I42Ixw6iW+l/aRtzgU
NfvPuhL5VWfoVLwORMpdscpcJUCPU3JhFFi0ygP6G406sbu14SlT74b95PsgehGD
0TFUb3VxqaLqEd73fivC8hgtko5P1KlL80DBp/WKWGBK2nSqHe/TiBmQJjkbBpXy
Hyq6V7prdECpjOhb+X2BKaa9Zd+a0n0LwZmZaomnjFlqBvSKJ6SH0cEW+m8Ug4cq
BT6u+wIDAQABo4GiMIGfMAkGA1UdEwQCMAAwHQYDVR0OBBYEFDT5TXrXiz/Yr941
P274vngC5kqhMFEGA1UdIwRKMEiAFED6b7R17aWYkAnBTEZBdyvpGZiooRqkGDAW
MRQwEgYDVQQDDAtFYXN5LVJTQSBDQYIUP5D1lSAMGY2RgXLUgXuSqQPr3PYwEwYD
VR0lBAwwCgYIKwYBBQUHAwIwCwYDVR0PBAQDAgeAMA0GCSqGSIb3DQEBCwUAA4IB
AQDPSeYtxW0B+Gle7juL3mnhu++qpuTXF6nD8DD9ofDrSqMXUvKCZlg5A4RW0O0T
aysskCCVSJRB9A+ZiJIMP711s4N5MBcuVIP+XndcQOwXfTy/WlBNrYnu/lbhbQbm
mlycboSReG+KoDDUs8lXl5jMJ5qmYV8T+i9liPxwyF2sCoUds72v+4NPoHjBr+wi
p3/Iby9CQRLvH94jOpllf/bkjjrpgU4Br4kH/6YoIFKTg+ak3bDiNGe/8/lpIZtG
kd035Hi3UrOyRC5hADfHK1Hv35vGbst0x73N/Wu1MBarbI3BsoyUPTNo58bI9tjp
8KpzddyqiOUfQKbKEPUao4bN
-----END CERTIFICATE-----
