Certificate:
    Data:
        Version: 3 (0x2)
        Serial Number:
            4f:be:dc:f8:ec:67:0f:0d:c5:8a:f7:3e:f0:84:43:d5
        Signature Algorithm: sha256WithRSAEncryption
        Issuer: CN=Easy-RSA CA
        Validity
            Not Before: May 15 02:36:31 2024 GMT
            Not After : May 13 02:36:31 2034 GMT
        Subject: CN=768c1c687efe184ae6dd2420710b8799
        Subject Public Key Info:
            Public Key Algorithm: rsaEncryption
                Public-Key: (2048 bit)
                Modulus:
                    00:bb:54:0a:9c:7b:f8:02:a9:8c:c4:48:2f:6a:ca:
                    f9:4f:43:d7:d6:e8:2c:29:df:3e:f7:f1:39:c3:c6:
                    85:bf:c5:2d:de:ce:e3:99:b5:1f:58:99:f1:7b:2d:
                    aa:d4:b4:11:7c:27:93:a6:d6:3c:2a:39:a7:ef:b5:
                    aa:29:c1:e1:ba:49:d9:a3:e1:1f:3e:4e:f9:06:ae:
                    09:fd:35:b1:ee:67:26:82:15:45:4a:0b:0d:3d:eb:
                    0b:6d:1e:63:66:ca:c7:0d:9f:00:f7:58:6b:df:6f:
                    53:62:ca:8f:a1:40:ac:6f:3f:d2:ee:91:d5:4f:4d:
                    16:7e:ba:6c:c5:65:20:57:78:81:9d:96:2b:f8:4f:
                    90:b1:e3:f4:a0:e8:92:1b:22:54:19:df:5e:82:99:
                    dd:76:48:31:28:45:36:17:8f:7d:3d:3e:81:2c:0e:
                    d8:bd:9a:e2:87:40:fe:c7:46:05:36:b3:5e:c8:3a:
                    64:ec:5d:36:dd:68:a7:4e:8d:33:28:05:03:ac:06:
                    bf:34:d5:18:3d:e7:ca:79:c5:d3:e3:b9:0f:30:c8:
                    d0:2f:0f:0d:1e:b1:4a:95:cd:84:cc:da:d3:78:5d:
                    e9:b5:b3:b0:bc:71:3d:51:0f:17:f2:d7:99:9b:64:
                    48:77:70:9a:25:e4:04:1d:e8:67:9b:19:3a:f0:c7:
                    75:8f
                Exponent: 65537 (0x10001)
        X509v3 extensions:
            X509v3 Basic Constraints: 
                CA:FALSE
            X509v3 Subject Key Identifier: 
                11:35:2A:3B:BE:B6:F6:75:BB:FF:26:10:C1:E0:02:B7:CA:5E:8C:DD
            X509v3 Authority Key Identifier: 
                keyid:40:FA:6F:B4:75:ED:A5:98:90:09:C1:4C:46:41:77:2B:E9:19:98:A8
                DirName:/CN=Easy-RSA CA
                serial:3F:90:F5:95:20:0C:19:8D:91:81:72:D4:81:7B:92:A9:03:EB:DC:F6
            X509v3 Extended Key Usage: 
                TLS Web Client Authentication
            X509v3 Key Usage: 
                Digital Signature
    Signature Algorithm: sha256WithRSAEncryption
    Signature Value:
        48:33:8d:8c:86:84:3b:86:8e:69:c8:b1:3d:69:ae:11:82:ba:
        b0:5a:9e:fc:fb:29:d1:f4:85:42:86:8d:62:31:fe:4a:54:1b:
        78:89:6c:38:6d:94:df:c4:aa:57:4b:f3:21:fc:df:ff:25:09:
        43:6e:7f:54:49:17:4f:76:da:dd:40:12:59:54:d6:c5:c1:be:
        0a:4c:08:1e:84:08:a8:cd:2a:af:fd:89:c2:11:b0:87:58:fd:
        b7:5e:89:6f:52:75:03:8b:7e:13:c8:70:99:04:7a:05:80:ef:
        a6:e2:bb:fd:ef:20:e0:72:f3:4d:2e:15:ef:85:b1:29:1e:27:
        67:cc:51:c3:d3:68:33:e8:86:ed:62:c0:27:d8:c3:34:94:09:
        f1:c4:b4:53:d9:7a:d9:0c:72:53:48:c8:4a:52:ff:42:91:bb:
        bb:86:1d:76:70:10:17:ba:eb:36:0b:cf:7a:9a:35:b1:fd:be:
        f3:a7:24:f2:fd:58:a3:93:42:97:94:10:4b:87:68:6a:dd:6d:
        72:f5:f7:d9:6c:39:ce:9b:67:4a:8c:f8:58:5d:b1:a8:cc:0a:
        89:f3:35:c4:48:8f:54:e2:55:73:61:3a:27:45:e0:c2:06:89:
        ea:7e:9d:c7:08:2e:0a:76:52:0c:81:c1:bc:3a:dd:88:e7:70:
        85:2e:b6:ee
-----BEGIN CERTIFICATE-----
MIIDbjCCAlagAwIBAgIQT77c+OxnDw3Fivc+8IRD1TANBgkqhkiG9w0BAQsFADAW
MRQwEgYDVQQDDAtFYXN5LVJTQSBDQTAeFw0yNDA1MTUwMjM2MzFaFw0zNDA1MTMw
MjM2MzFaMCsxKTAnBgNVBAMMIDc2OGMxYzY4N2VmZTE4NGFlNmRkMjQyMDcxMGI4
Nzk5MIIBIjANBgkqhkiG9w0BAQEFAAOCAQ8AMIIBCgKCAQEAu1QKnHv4AqmMxEgv
asr5T0PX1ugsKd8+9/E5w8aFv8Ut3s7jmbUfWJnxey2q1LQRfCeTptY8Kjmn77Wq
KcHhuknZo+EfPk75Bq4J/TWx7mcmghVFSgsNPesLbR5jZsrHDZ8A91hr329TYsqP
oUCsbz/S7pHVT00WfrpsxWUgV3iBnZYr+E+QseP0oOiSGyJUGd9egpnddkgxKEU2
F499PT6BLA7YvZrih0D+x0YFNrNeyDpk7F023WinTo0zKAUDrAa/NNUYPefKecXT
47kPMMjQLw8NHrFKlc2EzNrTeF3ptbOwvHE9UQ8X8teZm2RId3CaJeQEHehnmxk6
8Md1jwIDAQABo4GiMIGfMAkGA1UdEwQCMAAwHQYDVR0OBBYEFBE1Kju+tvZ1u/8m
EMHgArfKXozdMFEGA1UdIwRKMEiAFED6b7R17aWYkAnBTEZBdyvpGZiooRqkGDAW
MRQwEgYDVQQDDAtFYXN5LVJTQSBDQYIUP5D1lSAMGY2RgXLUgXuSqQPr3PYwEwYD
VR0lBAwwCgYIKwYBBQUHAwIwCwYDVR0PBAQDAgeAMA0GCSqGSIb3DQEBCwUAA4IB
AQBIM42MhoQ7ho5pyLE9aa4RgrqwWp78+ynR9IVCho1iMf5KVBt4iWw4bZTfxKpX
S/Mh/N//JQlDbn9USRdPdtrdQBJZVNbFwb4KTAgehAiozSqv/YnCEbCHWP23Xolv
UnUDi34TyHCZBHoFgO+m4rv97yDgcvNNLhXvhbEpHidnzFHD02gz6IbtYsAn2MM0
lAnxxLRT2XrZDHJTSMhKUv9Ckbu7hh12cBAXuus2C896mjWx/b7zpyTy/Vijk0KX
lBBLh2hq3W1y9ffZbDnOm2dKjPhYXbGozAqJ8zXESI9U4lVzYTonReDCBonqfp3H
CC4KdlIMgcG8Ot2I53CFLrbu
-----END CERTIFICATE-----
