Certificate:
    Data:
        Version: 3 (0x2)
        Serial Number:
            50:bf:46:b4:c8:97:e0:4d:c6:4f:da:5e:5f:d9:38:e2
        Signature Algorithm: sha256WithRSAEncryption
        Issuer: CN=Easy-RSA CA
        Validity
            Not Before: May 14 12:03:03 2024 GMT
            Not After : May 12 12:03:03 2034 GMT
        Subject: CN=test
        Subject Public Key Info:
            Public Key Algorithm: rsaEncryption
                Public-Key: (2048 bit)
                Modulus:
                    00:b3:d0:cd:42:2d:ee:a8:fb:d8:6f:61:17:45:eb:
                    87:1b:28:10:24:48:0a:8d:e9:05:37:1f:8e:14:21:
                    40:e2:fc:24:b8:cf:a3:8f:33:bf:be:59:5a:13:b8:
                    04:77:6d:9f:d9:04:86:a9:7f:67:db:25:ff:a2:ec:
                    ac:67:a8:96:fa:90:97:ec:72:5a:e1:bd:84:20:f2:
                    2f:de:bd:91:da:23:fe:ec:9a:7d:47:90:08:8f:d7:
                    a0:83:3b:17:b5:f2:e1:0f:05:d5:b5:ea:57:85:d2:
                    56:15:d3:e1:8e:88:a0:0e:59:b4:e3:48:81:6d:9e:
                    77:eb:fe:74:7c:15:1c:bf:04:a3:a1:e0:cd:8e:52:
                    42:9f:05:21:1c:d1:db:f5:fe:57:8d:0c:5f:76:bd:
                    94:b9:08:14:0e:d7:dd:db:0b:6e:cf:66:af:6e:2e:
                    e5:4b:fb:81:ea:ca:5c:63:b0:01:e8:63:b4:72:e2:
                    43:82:3c:b3:7d:bf:01:4c:14:83:47:e5:27:a2:c5:
                    86:a2:ee:da:f9:17:57:72:31:50:cd:95:66:b7:8b:
                    63:18:11:db:8b:66:ab:39:8d:b0:fa:da:1b:4d:a1:
                    78:1d:1c:45:80:46:9c:4f:11:5a:d6:2c:03:71:74:
                    c0:60:80:02:d9:34:09:61:99:c7:3f:ba:7f:e4:47:
                    17:91
                Exponent: 65537 (0x10001)
        X509v3 extensions:
            X509v3 Basic Constraints: 
                CA:FALSE
            X509v3 Subject Key Identifier: 
                4F:87:F4:91:9A:BF:E6:12:91:68:E9:CB:0F:8A:44:A2:25:B2:17:F9
            X509v3 Authority Key Identifier: 
                keyid:40:FA:6F:B4:75:ED:A5:98:90:09:C1:4C:46:41:77:2B:E9:19:98:A8
                DirName:/CN=Easy-RSA CA
                serial:3F:90:F5:95:20:0C:19:8D:91:81:72:D4:81:7B:92:A9:03:EB:DC:F6
            X509v3 Extended Key Usage: 
                TLS Web Client Authentication
            X509v3 Key Usage: 
                Digital Signature
    Signature Algorithm: sha256WithRSAEncryption
    Signature Value:
        63:7f:67:41:4d:9a:7c:a7:36:35:c8:38:82:a8:a4:87:dd:20:
        ce:4c:c9:33:b1:f0:00:7a:00:c6:77:c6:18:ff:eb:11:6b:2a:
        e3:7b:5e:6a:59:8d:1b:5f:47:fb:60:b9:dc:e6:1c:b8:58:39:
        db:0c:12:0b:53:8d:a0:39:ab:07:15:6c:b6:5e:c3:56:d8:dd:
        00:7e:dd:bd:59:13:23:3f:7a:85:54:0b:bb:59:b4:90:e4:69:
        7d:ad:a3:73:01:4a:82:1d:66:45:c6:c3:19:b3:b3:03:38:1d:
        4c:ab:5e:a3:21:e6:f0:f9:d3:4b:d8:d5:29:95:9b:50:4b:51:
        8c:20:8a:85:57:b6:fa:2b:e2:df:49:4f:af:4e:9a:7b:ee:a4:
        78:28:67:88:aa:e5:d7:36:69:33:8f:40:aa:05:3d:30:a2:13:
        0c:94:72:85:1f:15:d5:8e:1a:18:46:28:b5:9f:93:50:40:86:
        33:ed:d7:d9:3e:b6:cb:46:cd:61:d9:c0:6d:34:aa:98:9f:e2:
        72:de:c2:f8:6b:b8:d1:eb:66:0f:5b:76:8d:da:04:04:8c:29:
        b2:71:f8:66:a7:62:72:71:41:cb:f3:45:7e:81:90:87:41:a4:
        18:54:4c:3f:86:4a:c8:0d:61:fe:b2:04:02:9f:7d:d1:24:c4:
        0f:5f:1f:33
-----BEGIN CERTIFICATE-----
MIIDUjCCAjqgAwIBAgIQUL9GtMiX4E3GT9peX9k44jANBgkqhkiG9w0BAQsFADAW
MRQwEgYDVQQDDAtFYXN5LVJTQSBDQTAeFw0yNDA1MTQxMjAzMDNaFw0zNDA1MTIx
MjAzMDNaMA8xDTALBgNVBAMMBHRlc3QwggEiMA0GCSqGSIb3DQEBAQUAA4IBDwAw
ggEKAoIBAQCz0M1CLe6o+9hvYRdF64cbKBAkSAqN6QU3H44UIUDi/CS4z6OPM7++
WVoTuAR3bZ/ZBIapf2fbJf+i7KxnqJb6kJfsclrhvYQg8i/evZHaI/7smn1HkAiP
16CDOxe18uEPBdW16leF0lYV0+GOiKAOWbTjSIFtnnfr/nR8FRy/BKOh4M2OUkKf
BSEc0dv1/leNDF92vZS5CBQO193bC27PZq9uLuVL+4HqylxjsAHoY7Ry4kOCPLN9
vwFMFINH5SeixYai7tr5F1dyMVDNlWa3i2MYEduLZqs5jbD62htNoXgdHEWARpxP
EVrWLANxdMBggALZNAlhmcc/un/kRxeRAgMBAAGjgaIwgZ8wCQYDVR0TBAIwADAd
BgNVHQ4EFgQUT4f0kZq/5hKRaOnLD4pEoiWyF/kwUQYDVR0jBEowSIAUQPpvtHXt
pZiQCcFMRkF3K+kZmKihGqQYMBYxFDASBgNVBAMMC0Vhc3ktUlNBIENBghQ/kPWV
IAwZjZGBctSBe5KpA+vc9jATBgNVHSUEDDAKBggrBgEFBQcDAjALBgNVHQ8EBAMC
B4AwDQYJKoZIhvcNAQELBQADggEBAGN/Z0FNmnynNjXIOIKopIfdIM5MyTOx8AB6
AMZ3xhj/6xFrKuN7XmpZjRtfR/tgudzmHLhYOdsMEgtTjaA5qwcVbLZew1bY3QB+
3b1ZEyM/eoVUC7tZtJDkaX2to3MBSoIdZkXGwxmzswM4HUyrXqMh5vD500vY1SmV
m1BLUYwgioVXtvor4t9JT69OmnvupHgoZ4iq5dc2aTOPQKoFPTCiEwyUcoUfFdWO
GhhGKLWfk1BAhjPt19k+tstGzWHZwG00qpif4nLewvhruNHrZg9bdo3aBASMKbJx
+GanYnJxQcvzRX6BkIdBpBhUTD+GSsgNYf6yBAKffdEkxA9fHzM=
-----END CERTIFICATE-----
