Certificate:
    Data:
        Version: 3 (0x2)
        Serial Number:
            6d:a0:f2:b2:c3:44:ea:92:40:6c:1b:68:34:8a:d1:da
        Signature Algorithm: sha256WithRSAEncryption
        Issuer: CN=Easy-RSA CA
        Validity
            Not Before: May 14 01:54:17 2024 GMT
            Not After : May 12 01:54:17 2034 GMT
        Subject: CN=59adcb09e6ad508acfbe379ea636764c
        Subject Public Key Info:
            Public Key Algorithm: rsaEncryption
                RSA Public-Key: (2048 bit)
                Modulus:
                    00:a9:97:79:73:f2:05:68:91:86:c8:3e:d5:f0:6b:
                    c4:d9:3b:20:9f:22:30:ff:f9:1b:6e:25:7e:7d:64:
                    ca:30:ce:bb:42:41:f0:76:d2:a8:45:6d:00:9d:54:
                    47:b0:7a:f9:80:50:e4:65:90:25:d7:7d:90:83:45:
                    a6:82:15:a5:66:4b:29:20:35:ec:dd:dc:1a:0c:a8:
                    ad:53:e4:59:52:50:54:91:d9:7b:9f:e9:4a:9e:a1:
                    76:b2:b6:1b:12:bd:3f:02:e0:75:3b:13:c1:cc:b3:
                    c6:0b:99:cb:9c:25:44:05:fa:6d:7f:74:82:78:67:
                    6e:cd:40:9d:8a:18:c2:cf:8a:5e:c0:b2:81:5f:23:
                    ab:a4:a0:5a:89:bc:30:f2:ab:96:cb:a2:49:e3:d8:
                    41:7c:d2:59:b7:65:8d:f1:67:87:83:67:44:a0:db:
                    71:14:8a:90:a4:04:6b:59:ee:08:da:ee:db:98:8a:
                    5a:d6:d0:fe:d5:91:a8:e5:0d:3f:fe:43:b8:52:41:
                    df:4f:0f:39:a8:90:78:ca:8c:55:e4:78:c1:0c:cb:
                    7f:df:26:e2:32:e5:69:6c:61:90:06:5c:3a:e8:56:
                    e4:f0:1a:1a:90:d1:c8:6e:24:16:8e:c1:cf:7c:34:
                    d8:0a:a0:93:f1:3a:bc:dd:f2:45:85:69:97:5a:38:
                    f1:f7
                Exponent: 65537 (0x10001)
        X509v3 extensions:
            X509v3 Basic Constraints: 
                CA:FALSE
            X509v3 Subject Key Identifier: 
                90:EF:79:38:D1:F6:94:39:74:9D:DB:2B:A7:68:BB:4A:69:D8:8D:54
            X509v3 Authority Key Identifier: 
                keyid:40:FA:6F:B4:75:ED:A5:98:90:09:C1:4C:46:41:77:2B:E9:19:98:A8
                DirName:/CN=Easy-RSA CA
                serial:3F:90:F5:95:20:0C:19:8D:91:81:72:D4:81:7B:92:A9:03:EB:DC:F6

            X509v3 Extended Key Usage: 
                TLS Web Client Authentication
            X509v3 Key Usage: 
                Digital Signature
    Signature Algorithm: sha256WithRSAEncryption
         87:30:c1:b5:50:b7:6b:e0:4e:90:fa:54:0c:0f:31:39:38:43:
         96:48:c4:d9:d6:96:5f:0b:35:d6:b2:4a:05:ba:f9:9a:f9:ba:
         ad:b5:46:26:af:af:d6:d0:ab:ab:91:83:37:bd:38:ac:07:f4:
         bb:4e:e2:73:90:73:08:7e:88:72:3d:97:09:10:ae:7a:04:2b:
         bf:0d:ca:da:8a:67:10:20:e1:a5:02:b5:43:11:c4:8b:19:9f:
         91:47:de:19:ca:31:a1:af:86:85:8e:73:a7:d1:b6:27:10:2c:
         55:02:fa:84:c1:1d:69:5d:d3:6c:b6:10:51:dc:07:f7:0a:ac:
         0c:0f:0a:ac:44:a9:4d:4d:f1:05:a7:64:e8:63:24:77:09:d4:
         d9:a2:42:d2:1a:43:0d:03:04:91:2c:05:f2:5e:cf:04:6a:a8:
         0b:2c:9f:b9:37:e7:7b:6d:1b:dd:9c:00:f2:03:e2:f0:e9:6e:
         bc:91:9e:96:d0:00:4d:70:21:62:7b:35:34:4a:4f:2e:1f:4b:
         3e:32:0a:f5:e3:1d:bb:45:e0:fa:c6:7b:ec:3b:ed:af:dd:a1:
         fe:c9:5f:bc:d9:a8:1f:85:bc:1e:47:f0:58:8c:07:88:c8:57:
         08:66:46:49:73:2c:fb:de:92:4b:ec:f6:f9:a6:75:b9:49:ca:
         d4:7e:ec:6e
-----BEGIN CERTIFICATE-----
MIIDbjCCAlagAwIBAgIQbaDyssNE6pJAbBtoNIrR2jANBgkqhkiG9w0BAQsFADAW
MRQwEgYDVQQDDAtFYXN5LVJTQSBDQTAeFw0yNDA1MTQwMTU0MTdaFw0zNDA1MTIw
MTU0MTdaMCsxKTAnBgNVBAMMIDU5YWRjYjA5ZTZhZDUwOGFjZmJlMzc5ZWE2MzY3
NjRjMIIBIjANBgkqhkiG9w0BAQEFAAOCAQ8AMIIBCgKCAQEAqZd5c/IFaJGGyD7V
8GvE2TsgnyIw//kbbiV+fWTKMM67QkHwdtKoRW0AnVRHsHr5gFDkZZAl132Qg0Wm
ghWlZkspIDXs3dwaDKitU+RZUlBUkdl7n+lKnqF2srYbEr0/AuB1OxPBzLPGC5nL
nCVEBfptf3SCeGduzUCdihjCz4pewLKBXyOrpKBaibww8quWy6JJ49hBfNJZt2WN
8WeHg2dEoNtxFIqQpARrWe4I2u7bmIpa1tD+1ZGo5Q0//kO4UkHfTw85qJB4yoxV
5HjBDMt/3ybiMuVpbGGQBlw66Fbk8BoakNHIbiQWjsHPfDTYCqCT8Tq83fJFhWmX
Wjjx9wIDAQABo4GiMIGfMAkGA1UdEwQCMAAwHQYDVR0OBBYEFJDveTjR9pQ5dJ3b
K6dou0pp2I1UMFEGA1UdIwRKMEiAFED6b7R17aWYkAnBTEZBdyvpGZiooRqkGDAW
MRQwEgYDVQQDDAtFYXN5LVJTQSBDQYIUP5D1lSAMGY2RgXLUgXuSqQPr3PYwEwYD
VR0lBAwwCgYIKwYBBQUHAwIwCwYDVR0PBAQDAgeAMA0GCSqGSIb3DQEBCwUAA4IB
AQCHMMG1ULdr4E6Q+lQMDzE5OEOWSMTZ1pZfCzXWskoFuvma+bqttUYmr6/W0Kur
kYM3vTisB/S7TuJzkHMIfohyPZcJEK56BCu/DcraimcQIOGlArVDEcSLGZ+RR94Z
yjGhr4aFjnOn0bYnECxVAvqEwR1pXdNsthBR3Af3CqwMDwqsRKlNTfEFp2ToYyR3
CdTZokLSGkMNAwSRLAXyXs8EaqgLLJ+5N+d7bRvdnADyA+Lw6W68kZ6W0ABNcCFi
ezU0Sk8uH0s+Mgr14x27ReD6xnvsO+2v3aH+yV+82agfhbweR/BYjAeIyFcIZkZJ
cyz73pJL7Pb5pnW5ScrUfuxu
-----END CERTIFICATE-----
