Certificate:
    Data:
        Version: 3 (0x2)
        Serial Number:
            70:03:38:e1:2a:b7:8b:c6:73:df:d7:fd:11:a3:8b:73
        Signature Algorithm: sha256WithRSAEncryption
        Issuer: CN=Easy-RSA CA
        Validity
            Not Before: May  8 08:30:05 2024 GMT
            Not After : May  6 08:30:05 2034 GMT
        Subject: CN=239f5dff7b474562f4b6524bf032472e
        Subject Public Key Info:
            Public Key Algorithm: rsaEncryption
                RSA Public-Key: (2048 bit)
                Modulus:
                    00:b5:97:34:f1:f4:d1:90:df:1a:97:22:9f:a9:d9:
                    86:95:0b:89:76:f3:5b:ab:41:12:ba:0e:96:3e:30:
                    57:56:c7:a2:0d:98:67:59:a7:d2:df:b9:4b:67:02:
                    d7:3d:f2:11:b8:ed:15:dc:bf:9f:2a:98:c8:f5:54:
                    7f:6b:53:cc:e4:be:2d:33:42:94:03:8d:51:88:b4:
                    2e:6c:0d:08:2b:ab:e4:07:5d:20:ec:85:43:ae:a2:
                    78:f1:9e:b0:2e:0d:c1:ad:5c:eb:25:00:b9:4b:d9:
                    fe:f1:d0:d6:4e:00:3a:4b:de:1d:d6:cf:d1:e2:6f:
                    75:e4:ed:78:b3:55:cc:b6:22:6c:d6:93:c6:16:60:
                    2a:13:bd:7d:82:f5:ea:31:84:ed:15:90:c1:4c:27:
                    ec:72:81:dd:3a:90:7a:b5:a7:cb:9b:d0:22:d9:34:
                    83:e9:51:c3:eb:c3:3f:d9:4c:8e:06:b0:74:b0:56:
                    b7:e2:15:96:17:91:76:7d:b5:65:88:b8:2d:8c:31:
                    15:81:68:d0:ef:f1:8e:50:bc:17:04:63:98:c9:23:
                    81:95:90:01:29:11:f7:28:62:75:8b:74:6d:39:ae:
                    34:8a:0b:aa:3a:18:a1:ad:f9:7a:10:18:e7:81:a6:
                    d4:6a:ee:31:57:37:77:14:5f:56:41:70:11:b6:20:
                    0e:03
                Exponent: 65537 (0x10001)
        X509v3 extensions:
            X509v3 Basic Constraints: 
                CA:FALSE
            X509v3 Subject Key Identifier: 
                48:44:90:6B:DD:07:75:B7:14:E3:BA:F1:4D:20:A6:70:08:24:88:4E
            X509v3 Authority Key Identifier: 
                keyid:40:FA:6F:B4:75:ED:A5:98:90:09:C1:4C:46:41:77:2B:E9:19:98:A8
                DirName:/CN=Easy-RSA CA
                serial:3F:90:F5:95:20:0C:19:8D:91:81:72:D4:81:7B:92:A9:03:EB:DC:F6

            X509v3 Extended Key Usage: 
                TLS Web Client Authentication
            X509v3 Key Usage: 
                Digital Signature
    Signature Algorithm: sha256WithRSAEncryption
         c2:9e:63:2b:a4:72:eb:e4:e7:fb:ed:4e:70:8f:88:7f:3e:dd:
         01:18:46:ab:62:7b:db:94:05:41:ce:9d:f9:34:82:b4:3a:4f:
         43:79:66:e6:48:b5:e5:01:21:f2:b8:26:ed:04:c9:9d:1f:d3:
         92:0e:ff:e0:59:dc:ed:00:be:cd:e3:23:40:ff:52:9f:13:bb:
         a5:3d:5d:32:1f:2b:ba:65:d3:e1:67:f3:5d:28:ee:7f:4d:c0:
         aa:a8:20:94:89:39:ed:9b:3c:86:0e:7c:63:82:d1:61:74:39:
         5c:71:40:96:a4:91:fe:5d:84:92:5b:ea:ac:c2:06:02:b9:79:
         7f:d3:8e:78:e5:c2:d9:8b:eb:a8:42:3b:86:3f:48:2c:37:91:
         0f:25:31:bc:bc:77:94:59:be:07:a0:a8:36:d6:04:01:ef:59:
         c5:2d:4c:9d:62:8d:cf:e6:11:42:b0:d8:42:2b:5a:a1:e7:fa:
         cb:d0:92:86:0a:75:9f:82:3b:a2:24:3f:4b:55:8b:f2:d4:93:
         1d:49:03:b0:86:e1:d4:da:32:3c:00:71:94:30:18:4d:76:52:
         2a:d7:bf:29:29:73:46:7e:40:7b:cb:98:6e:67:5b:05:ae:9d:
         06:4f:1d:40:5a:a7:bc:67:68:c4:16:3a:83:45:f9:12:b5:a7:
         56:81:0b:f9
-----BEGIN CERTIFICATE-----
MIIDbjCCAlagAwIBAgIQcAM44Sq3i8Zz39f9EaOLczANBgkqhkiG9w0BAQsFADAW
MRQwEgYDVQQDDAtFYXN5LVJTQSBDQTAeFw0yNDA1MDgwODMwMDVaFw0zNDA1MDYw
ODMwMDVaMCsxKTAnBgNVBAMMIDIzOWY1ZGZmN2I0NzQ1NjJmNGI2NTI0YmYwMzI0
NzJlMIIBIjANBgkqhkiG9w0BAQEFAAOCAQ8AMIIBCgKCAQEAtZc08fTRkN8alyKf
qdmGlQuJdvNbq0ESug6WPjBXVseiDZhnWafS37lLZwLXPfIRuO0V3L+fKpjI9VR/
a1PM5L4tM0KUA41RiLQubA0IK6vkB10g7IVDrqJ48Z6wLg3BrVzrJQC5S9n+8dDW
TgA6S94d1s/R4m915O14s1XMtiJs1pPGFmAqE719gvXqMYTtFZDBTCfscoHdOpB6
tafLm9Ai2TSD6VHD68M/2UyOBrB0sFa34hWWF5F2fbVliLgtjDEVgWjQ7/GOULwX
BGOYySOBlZABKRH3KGJ1i3RtOa40iguqOhihrfl6EBjngabUau4xVzd3FF9WQXAR
tiAOAwIDAQABo4GiMIGfMAkGA1UdEwQCMAAwHQYDVR0OBBYEFEhEkGvdB3W3FOO6
8U0gpnAIJIhOMFEGA1UdIwRKMEiAFED6b7R17aWYkAnBTEZBdyvpGZiooRqkGDAW
MRQwEgYDVQQDDAtFYXN5LVJTQSBDQYIUP5D1lSAMGY2RgXLUgXuSqQPr3PYwEwYD
VR0lBAwwCgYIKwYBBQUHAwIwCwYDVR0PBAQDAgeAMA0GCSqGSIb3DQEBCwUAA4IB
AQDCnmMrpHLr5Of77U5wj4h/Pt0BGEarYnvblAVBzp35NIK0Ok9DeWbmSLXlASHy
uCbtBMmdH9OSDv/gWdztAL7N4yNA/1KfE7ulPV0yHyu6ZdPhZ/NdKO5/TcCqqCCU
iTntmzyGDnxjgtFhdDlccUCWpJH+XYSSW+qswgYCuXl/04545cLZi+uoQjuGP0gs
N5EPJTG8vHeUWb4HoKg21gQB71nFLUydYo3P5hFCsNhCK1qh5/rL0JKGCnWfgjui
JD9LVYvy1JMdSQOwhuHU2jI8AHGUMBhNdlIq178pKXNGfkB7y5huZ1sFrp0GTx1A
Wqe8Z2jEFjqDRfkStadWgQv5
-----END CERTIFICATE-----
