Certificate:
    Data:
        Version: 3 (0x2)
        Serial Number:
            70:4b:95:b0:af:0c:dd:8e:b7:c5:cf:fc:af:87:3d:27
        Signature Algorithm: sha256WithRSAEncryption
        Issuer: CN=Easy-RSA CA
        Validity
            Not Before: May  8 04:29:03 2024 GMT
            Not After : May  6 04:29:03 2034 GMT
        Subject: CN=20FA3E40C501AF65EA3D8AEF180F9F25
        Subject Public Key Info:
            Public Key Algorithm: rsaEncryption
                RSA Public-Key: (2048 bit)
                Modulus:
                    00:bd:25:36:c8:a3:04:ba:1f:0b:98:75:0e:d5:9b:
                    e1:f4:bf:c0:2b:48:fb:1c:44:12:b3:7c:7d:9b:66:
                    00:4f:9b:57:d5:a0:67:d8:7a:01:e4:a5:bb:3f:76:
                    76:d2:08:23:17:7e:1a:25:bf:17:61:25:25:bd:bb:
                    00:e1:19:fe:34:fa:69:73:d7:9f:c6:23:38:3b:6c:
                    f5:98:2b:0e:8e:e0:c6:cc:44:f5:29:66:31:57:9b:
                    76:55:24:99:9b:19:b4:f1:c7:83:0c:48:c6:b4:c8:
                    b7:1f:5b:97:44:67:f4:e5:6a:f7:0d:69:25:1e:6e:
                    6d:ee:2e:c6:48:bd:1d:a6:ff:fe:c9:20:bd:c7:53:
                    ab:f5:73:08:2c:cb:3d:f7:e3:44:20:03:ee:c8:0f:
                    ed:97:95:d2:70:95:be:88:69:fe:c5:c4:f6:c3:02:
                    c0:39:25:b6:99:08:cb:e9:79:fe:f6:2a:03:ea:2d:
                    9b:80:10:7b:3e:14:d9:19:fc:80:6f:db:8c:d9:77:
                    57:9a:a2:b4:88:66:db:5b:14:e8:10:02:f6:6e:6a:
                    0e:17:36:d2:9e:f7:b6:a9:99:f4:e5:19:96:8b:a0:
                    9b:01:5e:eb:4b:d3:fa:47:cf:9a:87:28:c3:63:1a:
                    be:7f:09:09:e1:36:5b:98:a3:95:74:79:fe:23:96:
                    dc:15
                Exponent: 65537 (0x10001)
        X509v3 extensions:
            X509v3 Basic Constraints: 
                CA:FALSE
            X509v3 Subject Key Identifier: 
                BB:D9:5B:78:9C:8C:8A:81:D3:38:8F:4B:5B:DD:22:AB:C0:FB:5E:58
            X509v3 Authority Key Identifier: 
                keyid:40:FA:6F:B4:75:ED:A5:98:90:09:C1:4C:46:41:77:2B:E9:19:98:A8
                DirName:/CN=Easy-RSA CA
                serial:3F:90:F5:95:20:0C:19:8D:91:81:72:D4:81:7B:92:A9:03:EB:DC:F6

            X509v3 Extended Key Usage: 
                TLS Web Client Authentication
            X509v3 Key Usage: 
                Digital Signature
    Signature Algorithm: sha256WithRSAEncryption
         0c:6c:40:24:8c:89:f0:1f:a3:7d:49:76:cd:f9:01:84:34:3d:
         6d:e5:81:55:fd:56:06:25:6c:1f:69:b3:8d:e5:19:af:1e:10:
         19:0c:8e:9d:08:fa:ba:63:5b:12:87:cf:fe:1e:5d:31:4d:fa:
         a2:12:3a:92:e0:29:e3:42:5d:3a:f4:11:8b:b6:91:91:f6:8f:
         85:02:4b:88:59:ee:c9:52:78:7e:75:3f:4e:76:e5:15:e3:74:
         06:c0:dd:5d:3e:66:c0:56:6a:3e:d8:18:43:2f:5b:83:30:0e:
         c8:80:97:84:2f:d1:36:cc:d7:1f:1c:54:0d:b5:f8:35:c8:60:
         9e:8b:12:9a:87:1c:d3:c2:29:90:94:19:68:ff:4f:11:a8:c1:
         42:37:28:ae:be:23:50:c6:61:1f:7a:e9:3f:c1:b8:b0:58:c9:
         0b:ed:c5:a3:25:9f:86:65:99:e3:7d:af:7e:3c:ec:f0:af:6e:
         ee:83:41:68:8f:70:80:73:8c:63:ac:04:71:ee:69:16:fd:e8:
         23:0d:ba:31:03:3f:51:32:3f:3b:d8:3e:6b:b0:fe:b4:04:d3:
         2e:64:31:42:35:b0:02:b5:09:f2:80:0b:f8:60:5a:f4:b9:f8:
         2d:b5:fd:31:30:5b:c6:7e:b2:b3:ca:7d:bd:90:3c:25:7c:a0:
         35:22:77:34
-----BEGIN CERTIFICATE-----
MIIDbjCCAlagAwIBAgIQcEuVsK8M3Y63xc/8r4c9JzANBgkqhkiG9w0BAQsFADAW
MRQwEgYDVQQDDAtFYXN5LVJTQSBDQTAeFw0yNDA1MDgwNDI5MDNaFw0zNDA1MDYw
NDI5MDNaMCsxKTAnBgNVBAMMIDIwRkEzRTQwQzUwMUFGNjVFQTNEOEFFRjE4MEY5
RjI1MIIBIjANBgkqhkiG9w0BAQEFAAOCAQ8AMIIBCgKCAQEAvSU2yKMEuh8LmHUO
1Zvh9L/AK0j7HEQSs3x9m2YAT5tX1aBn2HoB5KW7P3Z20ggjF34aJb8XYSUlvbsA
4Rn+NPppc9efxiM4O2z1mCsOjuDGzET1KWYxV5t2VSSZmxm08ceDDEjGtMi3H1uX
RGf05Wr3DWklHm5t7i7GSL0dpv/+ySC9x1Or9XMILMs99+NEIAPuyA/tl5XScJW+
iGn+xcT2wwLAOSW2mQjL6Xn+9ioD6i2bgBB7PhTZGfyAb9uM2XdXmqK0iGbbWxTo
EAL2bmoOFzbSnve2qZn05RmWi6CbAV7rS9P6R8+ahyjDYxq+fwkJ4TZbmKOVdHn+
I5bcFQIDAQABo4GiMIGfMAkGA1UdEwQCMAAwHQYDVR0OBBYEFLvZW3icjIqB0ziP
S1vdIqvA+15YMFEGA1UdIwRKMEiAFED6b7R17aWYkAnBTEZBdyvpGZiooRqkGDAW
MRQwEgYDVQQDDAtFYXN5LVJTQSBDQYIUP5D1lSAMGY2RgXLUgXuSqQPr3PYwEwYD
VR0lBAwwCgYIKwYBBQUHAwIwCwYDVR0PBAQDAgeAMA0GCSqGSIb3DQEBCwUAA4IB
AQAMbEAkjInwH6N9SXbN+QGEND1t5YFV/VYGJWwfabON5RmvHhAZDI6dCPq6Y1sS
h8/+Hl0xTfqiEjqS4CnjQl069BGLtpGR9o+FAkuIWe7JUnh+dT9OduUV43QGwN1d
PmbAVmo+2BhDL1uDMA7IgJeEL9E2zNcfHFQNtfg1yGCeixKahxzTwimQlBlo/08R
qMFCNyiuviNQxmEfeuk/wbiwWMkL7cWjJZ+GZZnjfa9+POzwr27ug0Foj3CAc4xj
rARx7mkW/egjDboxAz9RMj872D5rsP60BNMuZDFCNbACtQnygAv4YFr0ufgttf0x
MFvGfrKzyn29kDwlfKA1Inc0
-----END CERTIFICATE-----
