Certificate:
    Data:
        Version: 3 (0x2)
        Serial Number:
            74:aa:ca:4d:a9:96:17:30:5b:ec:97:4f:71:13:bc:a3
        Signature Algorithm: sha256WithRSAEncryption
        Issuer: CN=Easy-RSA CA
        Validity
            Not Before: May  8 08:50:46 2024 GMT
            Not After : May  6 08:50:46 2034 GMT
        Subject: CN=239f5dff7b474562f4b6524bf032472e
        Subject Public Key Info:
            Public Key Algorithm: rsaEncryption
                RSA Public-Key: (2048 bit)
                Modulus:
                    00:b5:97:34:f1:f4:d1:90:df:1a:97:22:9f:a9:d9:
                    86:95:0b:89:76:f3:5b:ab:41:12:ba:0e:96:3e:30:
                    57:56:c7:a2:0d:98:67:59:a7:d2:df:b9:4b:67:02:
                    d7:3d:f2:11:b8:ed:15:dc:bf:9f:2a:98:c8:f5:54:
                    7f:6b:53:cc:e4:be:2d:33:42:94:03:8d:51:88:b4:
                    2e:6c:0d:08:2b:ab:e4:07:5d:20:ec:85:43:ae:a2:
                    78:f1:9e:b0:2e:0d:c1:ad:5c:eb:25:00:b9:4b:d9:
                    fe:f1:d0:d6:4e:00:3a:4b:de:1d:d6:cf:d1:e2:6f:
                    75:e4:ed:78:b3:55:cc:b6:22:6c:d6:93:c6:16:60:
                    2a:13:bd:7d:82:f5:ea:31:84:ed:15:90:c1:4c:27:
                    ec:72:81:dd:3a:90:7a:b5:a7:cb:9b:d0:22:d9:34:
                    83:e9:51:c3:eb:c3:3f:d9:4c:8e:06:b0:74:b0:56:
                    b7:e2:15:96:17:91:76:7d:b5:65:88:b8:2d:8c:31:
                    15:81:68:d0:ef:f1:8e:50:bc:17:04:63:98:c9:23:
                    81:95:90:01:29:11:f7:28:62:75:8b:74:6d:39:ae:
                    34:8a:0b:aa:3a:18:a1:ad:f9:7a:10:18:e7:81:a6:
                    d4:6a:ee:31:57:37:77:14:5f:56:41:70:11:b6:20:
                    0e:03
                Exponent: 65537 (0x10001)
        X509v3 extensions:
            X509v3 Basic Constraints: 
                CA:FALSE
            X509v3 Subject Key Identifier: 
                48:44:90:6B:DD:07:75:B7:14:E3:BA:F1:4D:20:A6:70:08:24:88:4E
            X509v3 Authority Key Identifier: 
                keyid:40:FA:6F:B4:75:ED:A5:98:90:09:C1:4C:46:41:77:2B:E9:19:98:A8
                DirName:/CN=Easy-RSA CA
                serial:3F:90:F5:95:20:0C:19:8D:91:81:72:D4:81:7B:92:A9:03:EB:DC:F6

            X509v3 Extended Key Usage: 
                TLS Web Client Authentication
            X509v3 Key Usage: 
                Digital Signature
    Signature Algorithm: sha256WithRSAEncryption
         4d:e0:0d:cc:4f:97:13:28:09:30:73:84:62:7c:01:5f:f8:8c:
         c7:5b:c6:07:73:13:ca:d7:cc:f4:b5:76:02:5e:34:1e:0d:70:
         26:cb:0e:f4:8b:fe:e2:3a:6f:cd:c5:a2:7d:80:56:59:e1:c0:
         69:da:18:b7:3b:b0:35:47:19:29:7e:ab:e1:15:b7:2d:31:a8:
         cf:f0:43:7a:ec:61:30:e5:d6:76:e4:c9:63:b9:8d:1c:5c:19:
         47:4e:0c:12:c4:13:f2:e3:ad:ae:6c:0b:3e:35:d6:fd:6f:26:
         74:80:f9:a2:65:5c:03:89:6d:1e:9f:0b:8d:51:98:a6:1c:1d:
         29:1e:ce:d3:fa:cc:a9:37:23:8d:08:63:d5:8a:86:19:62:c6:
         92:c3:7d:f2:07:92:e9:b1:0c:a9:78:97:2a:9b:1c:73:64:4a:
         8a:68:47:18:bd:f4:f4:05:02:08:f9:d1:9d:d1:51:25:db:96:
         dc:f4:53:12:bf:69:ec:c1:4b:27:f6:69:cb:be:3c:b5:0b:44:
         86:51:58:49:30:f3:85:59:98:70:b4:93:44:95:b0:8b:b2:85:
         a2:38:d7:e6:7e:d6:96:7e:bc:b4:16:fb:8b:c4:42:e6:30:e7:
         ea:40:dd:0e:8b:88:e0:c6:4d:64:cf:98:28:76:72:ae:85:25:
         38:9b:f4:b7
-----BEGIN CERTIFICATE-----
MIIDbjCCAlagAwIBAgIQdKrKTamWFzBb7JdPcRO8ozANBgkqhkiG9w0BAQsFADAW
MRQwEgYDVQQDDAtFYXN5LVJTQSBDQTAeFw0yNDA1MDgwODUwNDZaFw0zNDA1MDYw
ODUwNDZaMCsxKTAnBgNVBAMMIDIzOWY1ZGZmN2I0NzQ1NjJmNGI2NTI0YmYwMzI0
NzJlMIIBIjANBgkqhkiG9w0BAQEFAAOCAQ8AMIIBCgKCAQEAtZc08fTRkN8alyKf
qdmGlQuJdvNbq0ESug6WPjBXVseiDZhnWafS37lLZwLXPfIRuO0V3L+fKpjI9VR/
a1PM5L4tM0KUA41RiLQubA0IK6vkB10g7IVDrqJ48Z6wLg3BrVzrJQC5S9n+8dDW
TgA6S94d1s/R4m915O14s1XMtiJs1pPGFmAqE719gvXqMYTtFZDBTCfscoHdOpB6
tafLm9Ai2TSD6VHD68M/2UyOBrB0sFa34hWWF5F2fbVliLgtjDEVgWjQ7/GOULwX
BGOYySOBlZABKRH3KGJ1i3RtOa40iguqOhihrfl6EBjngabUau4xVzd3FF9WQXAR
tiAOAwIDAQABo4GiMIGfMAkGA1UdEwQCMAAwHQYDVR0OBBYEFEhEkGvdB3W3FOO6
8U0gpnAIJIhOMFEGA1UdIwRKMEiAFED6b7R17aWYkAnBTEZBdyvpGZiooRqkGDAW
MRQwEgYDVQQDDAtFYXN5LVJTQSBDQYIUP5D1lSAMGY2RgXLUgXuSqQPr3PYwEwYD
VR0lBAwwCgYIKwYBBQUHAwIwCwYDVR0PBAQDAgeAMA0GCSqGSIb3DQEBCwUAA4IB
AQBN4A3MT5cTKAkwc4RifAFf+IzHW8YHcxPK18z0tXYCXjQeDXAmyw70i/7iOm/N
xaJ9gFZZ4cBp2hi3O7A1RxkpfqvhFbctMajP8EN67GEw5dZ25MljuY0cXBlHTgwS
xBPy462ubAs+Ndb9byZ0gPmiZVwDiW0enwuNUZimHB0pHs7T+sypNyONCGPVioYZ
YsaSw33yB5LpsQypeJcqmxxzZEqKaEcYvfT0BQII+dGd0VEl25bc9FMSv2nswUsn
9mnLvjy1C0SGUVhJMPOFWZhwtJNElbCLsoWiONfmftaWfry0FvuLxELmMOfqQN0O
i4jgxk1kz5godnKuhSU4m/S3
-----END CERTIFICATE-----
