Certificate:
    Data:
        Version: 3 (0x2)
        Serial Number:
            7c:5c:8f:ae:7c:b9:4a:fe:27:e4:15:57:66:dd:0b:ca
        Signature Algorithm: sha256WithRSAEncryption
        Issuer: CN=Easy-RSA CA
        Validity
            Not Before: May 15 02:23:55 2024 GMT
            Not After : May 13 02:23:55 2034 GMT
        Subject: CN=ad0234829205b9033196ba818f7a872b
        Subject Public Key Info:
            Public Key Algorithm: rsaEncryption
                Public-Key: (2048 bit)
                Modulus:
                    00:aa:2b:27:79:f1:37:bd:8d:44:03:cb:4f:73:a0:
                    64:a5:21:22:81:41:92:b3:c5:fd:33:27:79:b4:20:
                    d9:09:7d:30:bf:f5:23:34:56:0d:c5:73:b0:c5:29:
                    24:51:4b:54:d0:2c:a0:c2:ae:e3:a7:ad:3f:cc:d6:
                    29:cb:4b:d1:be:a4:d6:f7:8c:2b:c0:f9:54:09:49:
                    b7:2e:8d:13:e1:f7:02:16:9f:87:77:94:a0:c4:56:
                    b9:59:4a:d5:ec:3a:05:00:d1:c3:e8:5d:12:15:1e:
                    68:9f:ef:31:0f:7d:bd:58:98:b9:07:f0:20:37:8f:
                    b2:22:0d:63:6b:1e:e0:38:f2:66:da:59:b4:15:3f:
                    f3:f1:e1:73:e7:86:5e:1b:6b:2b:77:4e:15:19:14:
                    b8:34:8d:7c:f2:65:8c:0a:6b:af:60:8f:ea:8a:56:
                    3a:da:2d:32:d3:ef:1e:c3:6d:2e:42:8d:a6:d0:5e:
                    de:18:c5:c0:9c:e6:05:f1:96:ac:e8:98:6f:c2:dc:
                    28:87:50:2e:b3:a5:53:ac:cb:89:ce:0a:a3:1c:0c:
                    28:68:67:dd:cf:80:08:20:c1:b5:65:7a:08:b3:8e:
                    1b:a6:f1:ad:e5:a7:d5:43:2d:80:c0:cb:c8:9a:23:
                    8d:05:38:d6:43:a8:52:aa:d5:6b:ca:77:66:d0:43:
                    ac:f9
                Exponent: 65537 (0x10001)
        X509v3 extensions:
            X509v3 Basic Constraints: 
                CA:FALSE
            X509v3 Subject Key Identifier: 
                B3:19:7A:C9:3C:BC:D9:D6:A5:64:BF:9D:B9:70:FF:B5:8E:FC:B2:F2
            X509v3 Authority Key Identifier: 
                keyid:40:FA:6F:B4:75:ED:A5:98:90:09:C1:4C:46:41:77:2B:E9:19:98:A8
                DirName:/CN=Easy-RSA CA
                serial:3F:90:F5:95:20:0C:19:8D:91:81:72:D4:81:7B:92:A9:03:EB:DC:F6
            X509v3 Extended Key Usage: 
                TLS Web Client Authentication
            X509v3 Key Usage: 
                Digital Signature
    Signature Algorithm: sha256WithRSAEncryption
    Signature Value:
        2b:89:eb:22:9c:8f:ec:57:21:8e:bb:2f:de:cc:16:2c:68:d6:
        7e:5a:ae:c6:0d:43:69:f0:26:42:e6:41:bc:be:4a:a2:1f:3c:
        7e:d4:24:22:fb:61:84:09:79:45:39:7c:b6:ed:85:c9:03:87:
        6b:80:f5:12:e9:3a:37:02:4b:77:91:f3:ca:d1:c0:35:72:e1:
        60:b0:d4:30:22:d0:e5:05:c4:35:3f:21:9a:19:0a:1a:4d:bc:
        a2:88:ba:83:d7:2c:c0:4b:45:e8:cd:e7:d4:50:10:a4:0c:a2:
        45:2d:9f:2d:68:88:df:ca:19:69:bc:62:0e:11:64:25:f4:94:
        b7:39:1a:55:23:85:48:2b:b1:1c:16:40:a4:5e:a7:4b:a6:35:
        9f:af:0d:9a:14:a3:a6:79:67:d6:51:b9:b0:f4:85:92:8a:49:
        5d:f6:79:fa:66:f7:e6:33:f4:22:9a:6c:e6:d5:52:83:ff:c0:
        d9:e5:49:b2:5a:07:45:df:52:bf:80:6c:55:ad:65:15:ee:c2:
        97:66:6b:59:96:a6:15:0b:84:cc:32:c2:8c:96:d7:22:10:6d:
        57:ae:eb:42:6d:85:3a:ea:c8:f4:4d:53:b4:47:13:8c:b9:5e:
        65:b0:d9:d2:d7:cb:fa:6f:cf:86:82:9a:11:41:59:6a:cb:b7:
        bf:7c:c2:45
-----BEGIN CERTIFICATE-----
MIIDbjCCAlagAwIBAgIQfFyPrny5Sv4n5BVXZt0LyjANBgkqhkiG9w0BAQsFADAW
MRQwEgYDVQQDDAtFYXN5LVJTQSBDQTAeFw0yNDA1MTUwMjIzNTVaFw0zNDA1MTMw
MjIzNTVaMCsxKTAnBgNVBAMMIGFkMDIzNDgyOTIwNWI5MDMzMTk2YmE4MThmN2E4
NzJiMIIBIjANBgkqhkiG9w0BAQEFAAOCAQ8AMIIBCgKCAQEAqisnefE3vY1EA8tP
c6BkpSEigUGSs8X9Myd5tCDZCX0wv/UjNFYNxXOwxSkkUUtU0Cygwq7jp60/zNYp
y0vRvqTW94wrwPlUCUm3Lo0T4fcCFp+Hd5SgxFa5WUrV7DoFANHD6F0SFR5on+8x
D329WJi5B/AgN4+yIg1jax7gOPJm2lm0FT/z8eFz54ZeG2srd04VGRS4NI188mWM
CmuvYI/qilY62i0y0+8ew20uQo2m0F7eGMXAnOYF8Zas6Jhvwtwoh1Aus6VTrMuJ
zgqjHAwoaGfdz4AIIMG1ZXoIs44bpvGt5afVQy2AwMvImiONBTjWQ6hSqtVryndm
0EOs+QIDAQABo4GiMIGfMAkGA1UdEwQCMAAwHQYDVR0OBBYEFLMZesk8vNnWpWS/
nblw/7WO/LLyMFEGA1UdIwRKMEiAFED6b7R17aWYkAnBTEZBdyvpGZiooRqkGDAW
MRQwEgYDVQQDDAtFYXN5LVJTQSBDQYIUP5D1lSAMGY2RgXLUgXuSqQPr3PYwEwYD
VR0lBAwwCgYIKwYBBQUHAwIwCwYDVR0PBAQDAgeAMA0GCSqGSIb3DQEBCwUAA4IB
AQAriesinI/sVyGOuy/ezBYsaNZ+Wq7GDUNp8CZC5kG8vkqiHzx+1CQi+2GECXlF
OXy27YXJA4drgPUS6To3Akt3kfPK0cA1cuFgsNQwItDlBcQ1PyGaGQoaTbyiiLqD
1yzAS0XozefUUBCkDKJFLZ8taIjfyhlpvGIOEWQl9JS3ORpVI4VIK7EcFkCkXqdL
pjWfrw2aFKOmeWfWUbmw9IWSikld9nn6ZvfmM/Qimmzm1VKD/8DZ5UmyWgdF31K/
gGxVrWUV7sKXZmtZlqYVC4TMMsKMltciEG1XrutCbYU66sj0TVO0RxOMuV5lsNnS
18v6b8+GgpoRQVlqy7e/fMJF
-----END CERTIFICATE-----
