Certificate:
    Data:
        Version: 3 (0x2)
        Serial Number:
            7f:c6:6e:0d:fe:3a:07:83:62:e5:8b:df:99:49:41:12
        Signature Algorithm: sha256WithRSAEncryption
        Issuer: CN=Easy-RSA CA
        Validity
            Not Before: May 15 02:37:13 2024 GMT
            Not After : May 13 02:37:13 2034 GMT
        Subject: CN=f7a5c99c58103f6b65c451efd0f81826
        Subject Public Key Info:
            Public Key Algorithm: rsaEncryption
                Public-Key: (2048 bit)
                Modulus:
                    00:d9:75:d7:66:2b:eb:91:17:0b:1a:fc:df:1c:bd:
                    4f:5d:f2:66:10:b6:9f:ff:c7:85:a0:5f:49:fc:40:
                    36:08:ba:fc:b7:36:47:43:8c:4b:66:8b:14:41:26:
                    4e:94:4d:a6:2e:b9:a7:65:84:1f:5c:11:25:ac:ec:
                    38:99:1b:2b:08:02:06:ef:a4:19:1b:d9:8d:79:22:
                    16:d6:6a:88:73:e1:ad:cc:4c:fa:fb:c5:8b:86:62:
                    b7:6e:ee:5a:c4:b9:5d:55:38:c9:28:76:97:4d:a6:
                    a3:5d:da:37:11:14:6f:d8:d2:e4:d9:d9:cb:96:f9:
                    de:ca:5e:cb:ad:60:b3:d1:51:3e:69:77:26:1e:25:
                    6f:dd:6c:5a:ad:62:b6:68:b6:a7:c8:8d:47:93:c5:
                    cc:db:6e:35:45:74:43:27:65:8e:46:3e:f1:0f:88:
                    8c:1e:c1:8c:bd:14:48:a7:f8:51:8d:3a:25:09:a4:
                    48:d6:ed:42:8d:cf:f0:fd:3e:46:ac:bc:0f:7d:94:
                    b3:69:0b:28:d2:f5:9c:7c:30:bc:d0:6c:68:2a:01:
                    80:e8:bf:0b:1f:ee:ae:38:05:1d:96:29:37:df:0e:
                    6f:6d:0b:32:ed:34:47:88:96:ad:69:cb:1e:35:8a:
                    a2:f3:fa:a7:47:67:63:87:20:58:27:44:1b:42:e4:
                    46:b3
                Exponent: 65537 (0x10001)
        X509v3 extensions:
            X509v3 Basic Constraints: 
                CA:FALSE
            X509v3 Subject Key Identifier: 
                D6:84:1B:EA:4F:7B:2C:1B:F4:C5:3C:C9:61:A6:75:05:03:8B:1D:A2
            X509v3 Authority Key Identifier: 
                keyid:40:FA:6F:B4:75:ED:A5:98:90:09:C1:4C:46:41:77:2B:E9:19:98:A8
                DirName:/CN=Easy-RSA CA
                serial:3F:90:F5:95:20:0C:19:8D:91:81:72:D4:81:7B:92:A9:03:EB:DC:F6
            X509v3 Extended Key Usage: 
                TLS Web Client Authentication
            X509v3 Key Usage: 
                Digital Signature
    Signature Algorithm: sha256WithRSAEncryption
    Signature Value:
        7e:f9:15:2c:63:d3:1b:de:6a:b2:5b:81:a3:64:d7:0c:2e:7d:
        65:5d:56:1c:74:e2:73:13:84:63:27:a4:21:a2:8e:cb:f6:80:
        20:12:ef:7c:16:0e:af:24:cd:e8:31:78:b6:f9:68:36:9f:48:
        af:01:29:9b:34:5a:07:ca:a8:62:8e:5e:9c:07:79:44:47:73:
        f2:17:df:9f:59:5d:df:c4:6c:74:95:14:26:06:6a:b1:d7:b1:
        d7:4d:72:23:70:09:a9:b2:3d:e6:3c:36:0c:1a:37:92:b3:4d:
        ff:6e:79:7e:c5:06:df:87:0a:01:94:34:82:0b:d7:8f:5e:ce:
        50:69:df:7d:fc:64:8a:e2:9b:9f:d1:4a:d3:a2:0b:97:8e:87:
        48:6a:e7:8c:83:b4:9d:2b:88:de:97:12:3d:6d:26:d2:b1:59:
        54:87:6b:11:a0:a7:79:95:a5:04:f2:67:93:89:9d:f2:92:37:
        05:35:2c:f1:c1:f7:89:d3:ac:02:29:34:08:50:8c:84:0b:ff:
        81:1a:42:b8:ad:e8:92:82:e8:43:3a:15:f8:76:6b:92:3c:fa:
        35:fd:e5:8d:ae:73:dc:a6:6c:6e:e7:34:b3:d0:24:55:80:da:
        85:9a:29:62:32:27:92:a9:8c:ce:af:a6:10:b5:ff:2b:79:1b:
        a8:a9:34:e5
-----BEGIN CERTIFICATE-----
MIIDbjCCAlagAwIBAgIQf8ZuDf46B4Ni5YvfmUlBEjANBgkqhkiG9w0BAQsFADAW
MRQwEgYDVQQDDAtFYXN5LVJTQSBDQTAeFw0yNDA1MTUwMjM3MTNaFw0zNDA1MTMw
MjM3MTNaMCsxKTAnBgNVBAMMIGY3YTVjOTljNTgxMDNmNmI2NWM0NTFlZmQwZjgx
ODI2MIIBIjANBgkqhkiG9w0BAQEFAAOCAQ8AMIIBCgKCAQEA2XXXZivrkRcLGvzf
HL1PXfJmELaf/8eFoF9J/EA2CLr8tzZHQ4xLZosUQSZOlE2mLrmnZYQfXBElrOw4
mRsrCAIG76QZG9mNeSIW1mqIc+GtzEz6+8WLhmK3bu5axLldVTjJKHaXTaajXdo3
ERRv2NLk2dnLlvneyl7LrWCz0VE+aXcmHiVv3WxarWK2aLanyI1Hk8XM2241RXRD
J2WORj7xD4iMHsGMvRRIp/hRjTolCaRI1u1Cjc/w/T5GrLwPfZSzaQso0vWcfDC8
0GxoKgGA6L8LH+6uOAUdlik33w5vbQsy7TRHiJatacseNYqi8/qnR2djhyBYJ0Qb
QuRGswIDAQABo4GiMIGfMAkGA1UdEwQCMAAwHQYDVR0OBBYEFNaEG+pPeywb9MU8
yWGmdQUDix2iMFEGA1UdIwRKMEiAFED6b7R17aWYkAnBTEZBdyvpGZiooRqkGDAW
MRQwEgYDVQQDDAtFYXN5LVJTQSBDQYIUP5D1lSAMGY2RgXLUgXuSqQPr3PYwEwYD
VR0lBAwwCgYIKwYBBQUHAwIwCwYDVR0PBAQDAgeAMA0GCSqGSIb3DQEBCwUAA4IB
AQB++RUsY9Mb3mqyW4GjZNcMLn1lXVYcdOJzE4RjJ6Qhoo7L9oAgEu98Fg6vJM3o
MXi2+Wg2n0ivASmbNFoHyqhijl6cB3lER3PyF9+fWV3fxGx0lRQmBmqx17HXTXIj
cAmpsj3mPDYMGjeSs03/bnl+xQbfhwoBlDSCC9ePXs5Qad99/GSK4puf0UrToguX
jodIaueMg7SdK4jelxI9bSbSsVlUh2sRoKd5laUE8meTiZ3ykjcFNSzxwfeJ06wC
KTQIUIyEC/+BGkK4reiSguhDOhX4dmuSPPo1/eWNrnPcpmxu5zSz0CRVgNqFmili
MieSqYzOr6YQtf8reRuoqTTl
-----END CERTIFICATE-----
