Certificate:
    Data:
        Version: 3 (0x2)
        Serial Number:
            80:6c:d7:25:ee:79:ea:65:4b:e8:84:08:59:96:22:80
        Signature Algorithm: sha256WithRSAEncryption
        Issuer: CN=Easy-RSA CA
        Validity
            Not Before: May 15 02:33:24 2024 GMT
            Not After : May 13 02:33:24 2034 GMT
        Subject: CN=9fe51f80206cfaf760b997a585a1aec3
        Subject Public Key Info:
            Public Key Algorithm: rsaEncryption
                Public-Key: (2048 bit)
                Modulus:
                    00:a4:27:f4:3a:97:8e:c2:ce:f0:43:20:c6:5c:f4:
                    83:e1:d1:67:04:21:06:3c:9f:af:a0:fd:64:d0:e2:
                    12:c1:28:48:4a:2f:37:f2:d5:f6:6e:7a:d9:a6:a7:
                    e8:d0:80:8a:5d:e3:54:93:54:51:dc:e3:c8:6a:c0:
                    a9:8f:a7:0b:fc:6f:e0:c3:73:84:7c:ec:5e:27:ed:
                    60:27:38:1c:2d:7b:da:89:1d:4f:80:43:1e:f5:5e:
                    b5:81:e4:0f:56:e5:4a:ed:3e:90:a8:6b:a7:d4:bd:
                    0e:67:47:99:6f:87:b6:09:9c:de:22:68:03:47:92:
                    b8:b4:81:e2:cc:c3:50:f2:a3:28:6e:a9:1d:80:ef:
                    9c:60:52:a9:71:ea:d7:67:c8:32:62:60:78:7d:5b:
                    d7:91:54:a6:42:3c:93:cf:32:6e:2a:93:b9:9a:5c:
                    0c:a0:4b:71:f0:48:12:ae:46:aa:f7:4e:76:36:cd:
                    62:3b:59:31:e5:f3:87:f7:24:be:21:88:e7:b4:81:
                    e2:ba:34:93:51:62:61:d0:7c:d0:c9:f2:f4:a6:d0:
                    83:4c:d0:33:5c:32:93:fe:06:35:68:3d:ca:93:36:
                    be:fd:0a:f6:49:be:23:a3:7d:b8:ac:63:93:fc:9e:
                    e9:b7:2f:77:72:c9:f6:5e:29:6d:e9:8a:27:96:e4:
                    8b:8f
                Exponent: 65537 (0x10001)
        X509v3 extensions:
            X509v3 Basic Constraints: 
                CA:FALSE
            X509v3 Subject Key Identifier: 
                13:D2:0B:23:F3:A5:BF:9A:9F:08:DF:94:F6:90:FE:BD:0B:54:E2:B5
            X509v3 Authority Key Identifier: 
                keyid:40:FA:6F:B4:75:ED:A5:98:90:09:C1:4C:46:41:77:2B:E9:19:98:A8
                DirName:/CN=Easy-RSA CA
                serial:3F:90:F5:95:20:0C:19:8D:91:81:72:D4:81:7B:92:A9:03:EB:DC:F6
            X509v3 Extended Key Usage: 
                TLS Web Client Authentication
            X509v3 Key Usage: 
                Digital Signature
    Signature Algorithm: sha256WithRSAEncryption
    Signature Value:
        34:1d:4b:22:28:98:11:39:f1:f5:d3:29:30:74:d8:7a:98:43:
        3f:aa:9a:13:7c:78:f5:58:42:fc:40:d1:b9:7b:e4:ed:f8:15:
        bd:08:06:2f:06:34:4c:e3:f6:e8:a5:38:56:10:ca:71:a9:6e:
        74:66:a3:12:de:b1:f2:75:74:e8:02:ef:dd:a8:2c:3c:8c:dc:
        66:02:64:34:81:9a:d3:33:78:cf:25:17:d7:cc:78:14:6e:3a:
        75:3c:9d:d7:cc:17:35:8f:29:5b:bb:ba:8a:bb:c3:64:85:a8:
        34:35:f1:15:20:9c:45:49:1e:60:34:24:ce:b5:b7:20:5c:55:
        2a:88:f1:26:c0:36:a6:17:88:32:ae:2b:9b:1b:b4:fd:4b:7e:
        4a:10:44:a5:96:06:44:3c:93:82:46:59:e4:c5:53:25:88:1e:
        ab:1b:c6:cb:32:58:bd:e5:25:5b:59:74:3f:d7:e9:58:e3:52:
        0e:69:50:97:aa:9e:d6:47:e4:d9:6e:43:08:7f:ec:8c:58:5e:
        40:d9:bf:45:57:0d:00:25:d3:82:a6:e3:31:38:2e:9d:f2:57:
        88:67:88:eb:4c:f5:c8:f2:03:a4:51:9f:4b:90:eb:39:7c:e4:
        70:5b:db:96:d9:21:8b:d6:4f:72:ce:bf:86:39:51:5d:0f:19:
        0d:98:c5:f3
-----BEGIN CERTIFICATE-----
MIIDbzCCAlegAwIBAgIRAIBs1yXueeplS+iECFmWIoAwDQYJKoZIhvcNAQELBQAw
FjEUMBIGA1UEAwwLRWFzeS1SU0EgQ0EwHhcNMjQwNTE1MDIzMzI0WhcNMzQwNTEz
MDIzMzI0WjArMSkwJwYDVQQDDCA5ZmU1MWY4MDIwNmNmYWY3NjBiOTk3YTU4NWEx
YWVjMzCCASIwDQYJKoZIhvcNAQEBBQADggEPADCCAQoCggEBAKQn9DqXjsLO8EMg
xlz0g+HRZwQhBjyfr6D9ZNDiEsEoSEovN/LV9m562aan6NCAil3jVJNUUdzjyGrA
qY+nC/xv4MNzhHzsXiftYCc4HC172okdT4BDHvVetYHkD1blSu0+kKhrp9S9DmdH
mW+Htgmc3iJoA0eSuLSB4szDUPKjKG6pHYDvnGBSqXHq12fIMmJgeH1b15FUpkI8
k88ybiqTuZpcDKBLcfBIEq5GqvdOdjbNYjtZMeXzh/ckviGI57SB4ro0k1FiYdB8
0Mny9KbQg0zQM1wyk/4GNWg9ypM2vv0K9km+I6N9uKxjk/ye6bcvd3LJ9l4pbemK
J5bki48CAwEAAaOBojCBnzAJBgNVHRMEAjAAMB0GA1UdDgQWBBQT0gsj86W/mp8I
35T2kP69C1TitTBRBgNVHSMESjBIgBRA+m+0de2lmJAJwUxGQXcr6RmYqKEapBgw
FjEUMBIGA1UEAwwLRWFzeS1SU0EgQ0GCFD+Q9ZUgDBmNkYFy1IF7kqkD69z2MBMG
A1UdJQQMMAoGCCsGAQUFBwMCMAsGA1UdDwQEAwIHgDANBgkqhkiG9w0BAQsFAAOC
AQEANB1LIiiYETnx9dMpMHTYephDP6qaE3x49VhC/EDRuXvk7fgVvQgGLwY0TOP2
6KU4VhDKcaludGajEt6x8nV06ALv3agsPIzcZgJkNIGa0zN4zyUX18x4FG46dTyd
18wXNY8pW7u6irvDZIWoNDXxFSCcRUkeYDQkzrW3IFxVKojxJsA2pheIMq4rmxu0
/Ut+ShBEpZYGRDyTgkZZ5MVTJYgeqxvGyzJYveUlW1l0P9fpWONSDmlQl6qe1kfk
2W5DCH/sjFheQNm/RVcNACXTgqbjMTgunfJXiGeI60z1yPIDpFGfS5DrOXzkcFvb
ltkhi9ZPcs6/hjlRXQ8ZDZjF8w==
-----END CERTIFICATE-----
