Certificate:
    Data:
        Version: 3 (0x2)
        Serial Number:
            8e:10:37:ff:1b:c3:b6:3f:b3:f4:94:7b:f1:27:6a:a6
        Signature Algorithm: sha256WithRSAEncryption
        Issuer: CN=Easy-RSA CA
        Validity
            Not Before: May 15 02:16:27 2024 GMT
            Not After : May 13 02:16:27 2034 GMT
        Subject: CN=098f6bcd4621d373cade4e832627b4f6
        Subject Public Key Info:
            Public Key Algorithm: rsaEncryption
                Public-Key: (2048 bit)
                Modulus:
                    00:b1:ee:66:e7:20:6e:fb:b3:c8:9f:14:75:d8:40:
                    69:b5:c9:b1:ad:c1:1e:7b:55:24:a7:77:51:ab:94:
                    b6:30:8b:3b:bf:3c:c3:b8:a7:48:17:80:c2:c4:a2:
                    7d:32:2c:70:f0:6e:72:88:d4:1d:35:be:ac:44:8e:
                    bc:68:d1:52:ed:69:0f:d7:a7:26:69:96:b3:93:91:
                    13:2d:d0:37:f6:18:b0:83:a0:c5:96:c1:6a:d5:0a:
                    5c:a6:a4:8b:4e:d6:55:f8:fb:c4:68:65:52:43:70:
                    b3:04:91:92:a8:78:81:b5:fa:46:7e:17:da:79:99:
                    17:5c:d5:01:0c:1e:e2:bf:f8:24:b6:7e:61:1f:62:
                    68:57:5c:bb:5a:1f:b5:3b:a0:10:c0:09:b8:35:98:
                    13:5e:0c:20:fd:64:bb:88:9e:8c:9f:6a:4e:91:ff:
                    08:42:94:f4:48:dd:f3:92:f8:9d:7b:7c:06:44:86:
                    00:8c:48:6a:b8:6c:b6:f4:65:c0:ed:c8:2b:7d:c7:
                    04:72:7d:17:55:7f:b7:20:ff:03:82:fe:79:6e:73:
                    b9:3b:a1:fd:66:dd:2a:b3:5e:29:96:0c:19:6a:07:
                    b7:eb:2a:4f:5c:bd:84:46:f1:4a:76:1e:e4:9d:90:
                    d3:7e:a4:68:d8:a4:f2:b9:01:5c:08:a3:1d:28:df:
                    68:eb
                Exponent: 65537 (0x10001)
        X509v3 extensions:
            X509v3 Basic Constraints: 
                CA:FALSE
            X509v3 Subject Key Identifier: 
                0C:A9:EF:12:F6:33:BC:26:EC:F6:EA:ED:AE:56:D6:B5:A5:55:F2:D3
            X509v3 Authority Key Identifier: 
                keyid:40:FA:6F:B4:75:ED:A5:98:90:09:C1:4C:46:41:77:2B:E9:19:98:A8
                DirName:/CN=Easy-RSA CA
                serial:3F:90:F5:95:20:0C:19:8D:91:81:72:D4:81:7B:92:A9:03:EB:DC:F6
            X509v3 Extended Key Usage: 
                TLS Web Client Authentication
            X509v3 Key Usage: 
                Digital Signature
    Signature Algorithm: sha256WithRSAEncryption
    Signature Value:
        53:d3:f9:74:20:f5:14:0c:7b:75:7c:d6:f1:62:cd:0c:61:ef:
        80:4a:f9:37:ea:f9:a7:a5:04:74:3d:76:f5:90:11:c9:c4:45:
        3a:6e:66:4e:6c:cc:09:83:5d:2e:c3:70:14:3d:e1:e0:84:3a:
        5f:a9:0a:95:2d:67:41:70:15:19:fb:23:f4:e4:a2:cb:ea:75:
        cc:cc:e3:20:8b:dd:ef:87:76:0f:83:57:2e:34:0c:be:e2:e6:
        cd:38:0d:41:e5:69:80:19:02:35:6c:e4:ca:ee:8b:88:7a:1c:
        4e:5d:85:de:c2:e5:43:8b:12:bd:3e:aa:f8:4d:4f:7d:c5:c3:
        9a:bb:68:18:46:6a:1a:75:17:b1:90:49:56:31:d3:6a:8a:90:
        09:de:65:79:30:a3:57:97:78:cf:74:f3:1c:91:72:dd:58:0a:
        e5:9e:a5:01:26:dd:ed:93:e5:5c:17:d8:c1:8d:f5:38:63:72:
        55:2d:e9:fc:2d:d1:1b:33:e7:30:7d:a6:89:2d:1f:d1:7b:26:
        e5:8c:68:32:9a:45:af:04:3f:03:cc:9f:c6:1f:e9:bd:d0:4a:
        c7:e7:39:1b:2c:6c:2f:da:5d:40:64:ac:87:67:5e:c4:a9:79:
        2b:5c:7a:1a:85:9a:83:da:50:8d:a7:57:d6:c6:97:f4:ae:1f:
        33:5b:d5:eb
-----BEGIN CERTIFICATE-----
MIIDbzCCAlegAwIBAgIRAI4QN/8bw7Y/s/SUe/EnaqYwDQYJKoZIhvcNAQELBQAw
FjEUMBIGA1UEAwwLRWFzeS1SU0EgQ0EwHhcNMjQwNTE1MDIxNjI3WhcNMzQwNTEz
MDIxNjI3WjArMSkwJwYDVQQDDCAwOThmNmJjZDQ2MjFkMzczY2FkZTRlODMyNjI3
YjRmNjCCASIwDQYJKoZIhvcNAQEBBQADggEPADCCAQoCggEBALHuZucgbvuzyJ8U
ddhAabXJsa3BHntVJKd3UauUtjCLO788w7inSBeAwsSifTIscPBucojUHTW+rESO
vGjRUu1pD9enJmmWs5OREy3QN/YYsIOgxZbBatUKXKaki07WVfj7xGhlUkNwswSR
kqh4gbX6Rn4X2nmZF1zVAQwe4r/4JLZ+YR9iaFdcu1oftTugEMAJuDWYE14MIP1k
u4iejJ9qTpH/CEKU9Ejd85L4nXt8BkSGAIxIarhstvRlwO3IK33HBHJ9F1V/tyD/
A4L+eW5zuTuh/WbdKrNeKZYMGWoHt+sqT1y9hEbxSnYe5J2Q036kaNik8rkBXAij
HSjfaOsCAwEAAaOBojCBnzAJBgNVHRMEAjAAMB0GA1UdDgQWBBQMqe8S9jO8Juz2
6u2uVta1pVXy0zBRBgNVHSMESjBIgBRA+m+0de2lmJAJwUxGQXcr6RmYqKEapBgw
FjEUMBIGA1UEAwwLRWFzeS1SU0EgQ0GCFD+Q9ZUgDBmNkYFy1IF7kqkD69z2MBMG
A1UdJQQMMAoGCCsGAQUFBwMCMAsGA1UdDwQEAwIHgDANBgkqhkiG9w0BAQsFAAOC
AQEAU9P5dCD1FAx7dXzW8WLNDGHvgEr5N+r5p6UEdD129ZARycRFOm5mTmzMCYNd
LsNwFD3h4IQ6X6kKlS1nQXAVGfsj9OSiy+p1zMzjIIvd74d2D4NXLjQMvuLmzTgN
QeVpgBkCNWzkyu6LiHocTl2F3sLlQ4sSvT6q+E1PfcXDmrtoGEZqGnUXsZBJVjHT
aoqQCd5leTCjV5d4z3TzHJFy3VgK5Z6lASbd7ZPlXBfYwY31OGNyVS3p/C3RGzPn
MH2miS0f0Xsm5YxoMppFrwQ/A8yfxh/pvdBKx+c5GyxsL9pdQGSsh2dexKl5K1x6
GoWag9pQjadX1saX9K4fM1vV6w==
-----END CERTIFICATE-----
