Certificate:
    Data:
        Version: 3 (0x2)
        Serial Number:
            8e:be:c4:e6:c3:74:59:51:2d:cf:6e:30:aa:45:52:dc
        Signature Algorithm: sha256WithRSAEncryption
        Issuer: CN=Easy-RSA CA
        Validity
            Not Before: May 15 03:25:18 2024 GMT
            Not After : May 13 03:25:18 2034 GMT
        Subject: CN=098f6bcd4621d373cade4e832627b4f6
        Subject Public Key Info:
            Public Key Algorithm: rsaEncryption
                Public-Key: (2048 bit)
                Modulus:
                    00:a0:9c:45:d0:28:68:44:3c:86:9a:84:35:c9:4a:
                    7f:3a:f8:82:e8:de:03:f6:a8:55:a3:21:ae:a1:41:
                    f1:5a:1e:a0:8b:9a:2c:6d:9d:9b:f5:bc:39:47:a2:
                    72:f6:ca:56:e0:32:fb:b4:34:52:6a:13:de:99:72:
                    c8:50:53:4c:b9:75:be:52:5d:19:62:0d:65:a8:93:
                    d3:8d:a3:87:95:3d:a0:2c:d2:95:f4:f5:11:30:24:
                    9e:8c:ff:e1:95:e6:8d:4c:9a:dc:cd:6a:46:c9:4c:
                    23:0e:7b:34:61:cd:94:34:32:5e:d4:4c:1b:8d:c8:
                    41:27:25:ba:28:0b:d0:19:0f:40:6b:ce:f5:17:0d:
                    35:c6:03:a8:fa:4b:87:75:b8:71:25:b7:3f:84:11:
                    c5:01:df:47:b2:e4:7c:ee:27:31:77:f3:b7:b2:35:
                    72:e3:e1:82:3e:7b:67:88:c1:1a:56:0f:94:0d:fd:
                    58:c8:a9:82:fb:17:8f:d6:55:1f:f5:d1:ff:f0:e2:
                    78:a7:ab:ab:b2:03:6b:1e:36:bf:89:4d:9a:fd:43:
                    eb:dd:67:14:47:67:cb:79:90:7f:62:c0:67:3b:60:
                    96:9e:89:c2:95:10:53:2e:b4:88:ad:cf:c2:a8:84:
                    9e:b7:fb:9c:b7:63:e5:58:52:ff:ff:28:b1:29:4b:
                    78:c5
                Exponent: 65537 (0x10001)
        X509v3 extensions:
            X509v3 Basic Constraints: 
                CA:FALSE
            X509v3 Subject Key Identifier: 
                3C:A8:4F:74:89:05:2A:21:DD:47:C5:F4:30:35:41:B0:23:B1:10:F3
            X509v3 Authority Key Identifier: 
                keyid:40:FA:6F:B4:75:ED:A5:98:90:09:C1:4C:46:41:77:2B:E9:19:98:A8
                DirName:/CN=Easy-RSA CA
                serial:3F:90:F5:95:20:0C:19:8D:91:81:72:D4:81:7B:92:A9:03:EB:DC:F6
            X509v3 Extended Key Usage: 
                TLS Web Client Authentication
            X509v3 Key Usage: 
                Digital Signature
    Signature Algorithm: sha256WithRSAEncryption
    Signature Value:
        bb:2f:0f:21:5e:62:24:7c:ab:98:6c:75:20:3d:f7:9c:06:7b:
        94:e0:80:8f:bb:c7:6c:f7:23:cf:d3:c1:60:2f:f6:3c:be:70:
        0a:77:a3:26:b9:d4:30:d5:2d:99:b3:21:57:fd:d0:4e:1e:df:
        12:4f:5e:92:10:bd:09:71:83:a9:fe:d6:0e:1b:bf:6f:c1:c0:
        25:6f:1f:b8:7d:96:9b:e3:1f:34:6c:e2:0d:98:81:95:6d:49:
        19:dc:52:28:1b:c9:67:02:ba:3d:b7:9e:82:09:8b:76:77:40:
        6b:d6:e5:1e:af:d6:f8:c4:a0:b9:05:c4:62:ca:61:30:63:8f:
        fc:5f:bb:60:8f:1a:5d:fb:f9:22:7f:c6:31:62:eb:01:39:e4:
        ce:3a:0e:28:27:a9:dd:fd:6b:8b:3b:46:4d:f7:75:45:7e:11:
        3f:f1:ec:34:b6:c6:ec:8d:5a:c7:e5:fe:af:e0:46:a5:c5:bd:
        de:39:ec:96:22:a4:e1:76:56:74:86:62:2f:18:a5:fc:c7:fe:
        40:91:e0:a2:9a:a9:f2:b5:8e:f9:30:5a:4b:92:56:51:9b:7c:
        94:e7:9c:dd:e2:8b:37:e3:72:cb:87:a1:d5:d8:3c:1e:f2:42:
        a1:4b:1c:09:33:79:44:67:a8:b2:b2:23:36:82:03:d3:f0:95:
        7c:6d:ae:66
-----BEGIN CERTIFICATE-----
MIIDbzCCAlegAwIBAgIRAI6+xObDdFlRLc9uMKpFUtwwDQYJKoZIhvcNAQELBQAw
FjEUMBIGA1UEAwwLRWFzeS1SU0EgQ0EwHhcNMjQwNTE1MDMyNTE4WhcNMzQwNTEz
MDMyNTE4WjArMSkwJwYDVQQDDCAwOThmNmJjZDQ2MjFkMzczY2FkZTRlODMyNjI3
YjRmNjCCASIwDQYJKoZIhvcNAQEBBQADggEPADCCAQoCggEBAKCcRdAoaEQ8hpqE
NclKfzr4gujeA/aoVaMhrqFB8VoeoIuaLG2dm/W8OUeicvbKVuAy+7Q0UmoT3ply
yFBTTLl1vlJdGWINZaiT042jh5U9oCzSlfT1ETAknoz/4ZXmjUya3M1qRslMIw57
NGHNlDQyXtRMG43IQScluigL0BkPQGvO9RcNNcYDqPpLh3W4cSW3P4QRxQHfR7Lk
fO4nMXfzt7I1cuPhgj57Z4jBGlYPlA39WMipgvsXj9ZVH/XR//DieKerq7IDax42
v4lNmv1D691nFEdny3mQf2LAZztglp6JwpUQUy60iK3PwqiEnrf7nLdj5VhS//8o
sSlLeMUCAwEAAaOBojCBnzAJBgNVHRMEAjAAMB0GA1UdDgQWBBQ8qE90iQUqId1H
xfQwNUGwI7EQ8zBRBgNVHSMESjBIgBRA+m+0de2lmJAJwUxGQXcr6RmYqKEapBgw
FjEUMBIGA1UEAwwLRWFzeS1SU0EgQ0GCFD+Q9ZUgDBmNkYFy1IF7kqkD69z2MBMG
A1UdJQQMMAoGCCsGAQUFBwMCMAsGA1UdDwQEAwIHgDANBgkqhkiG9w0BAQsFAAOC
AQEAuy8PIV5iJHyrmGx1ID33nAZ7lOCAj7vHbPcjz9PBYC/2PL5wCnejJrnUMNUt
mbMhV/3QTh7fEk9ekhC9CXGDqf7WDhu/b8HAJW8fuH2Wm+MfNGziDZiBlW1JGdxS
KBvJZwK6PbeeggmLdndAa9blHq/W+MSguQXEYsphMGOP/F+7YI8aXfv5In/GMWLr
ATnkzjoOKCep3f1riztGTfd1RX4RP/HsNLbG7I1ax+X+r+BGpcW93jnsliKk4XZW
dIZiLxil/Mf+QJHgopqp8rWO+TBaS5JWUZt8lOec3eKLN+Nyy4eh1dg8HvJCoUsc
CTN5RGeosrIjNoID0/CVfG2uZg==
-----END CERTIFICATE-----
