Certificate:
    Data:
        Version: 3 (0x2)
        Serial Number:
            98:13:29:26:d2:0f:3c:69:de:64:2a:53:52:53:5a:57
        Signature Algorithm: sha256WithRSAEncryption
        Issuer: CN=Easy-RSA CA
        Validity
            Not Before: May  9 06:23:52 2024 GMT
            Not After : May  7 06:23:52 2034 GMT
        Subject: CN=239f5dff7b474562f4b6524bf032472e
        Subject Public Key Info:
            Public Key Algorithm: rsaEncryption
                RSA Public-Key: (2048 bit)
                Modulus:
                    00:b5:97:34:f1:f4:d1:90:df:1a:97:22:9f:a9:d9:
                    86:95:0b:89:76:f3:5b:ab:41:12:ba:0e:96:3e:30:
                    57:56:c7:a2:0d:98:67:59:a7:d2:df:b9:4b:67:02:
                    d7:3d:f2:11:b8:ed:15:dc:bf:9f:2a:98:c8:f5:54:
                    7f:6b:53:cc:e4:be:2d:33:42:94:03:8d:51:88:b4:
                    2e:6c:0d:08:2b:ab:e4:07:5d:20:ec:85:43:ae:a2:
                    78:f1:9e:b0:2e:0d:c1:ad:5c:eb:25:00:b9:4b:d9:
                    fe:f1:d0:d6:4e:00:3a:4b:de:1d:d6:cf:d1:e2:6f:
                    75:e4:ed:78:b3:55:cc:b6:22:6c:d6:93:c6:16:60:
                    2a:13:bd:7d:82:f5:ea:31:84:ed:15:90:c1:4c:27:
                    ec:72:81:dd:3a:90:7a:b5:a7:cb:9b:d0:22:d9:34:
                    83:e9:51:c3:eb:c3:3f:d9:4c:8e:06:b0:74:b0:56:
                    b7:e2:15:96:17:91:76:7d:b5:65:88:b8:2d:8c:31:
                    15:81:68:d0:ef:f1:8e:50:bc:17:04:63:98:c9:23:
                    81:95:90:01:29:11:f7:28:62:75:8b:74:6d:39:ae:
                    34:8a:0b:aa:3a:18:a1:ad:f9:7a:10:18:e7:81:a6:
                    d4:6a:ee:31:57:37:77:14:5f:56:41:70:11:b6:20:
                    0e:03
                Exponent: 65537 (0x10001)
        X509v3 extensions:
            X509v3 Basic Constraints: 
                CA:FALSE
            X509v3 Subject Key Identifier: 
                48:44:90:6B:DD:07:75:B7:14:E3:BA:F1:4D:20:A6:70:08:24:88:4E
            X509v3 Authority Key Identifier: 
                keyid:40:FA:6F:B4:75:ED:A5:98:90:09:C1:4C:46:41:77:2B:E9:19:98:A8
                DirName:/CN=Easy-RSA CA
                serial:3F:90:F5:95:20:0C:19:8D:91:81:72:D4:81:7B:92:A9:03:EB:DC:F6

            X509v3 Extended Key Usage: 
                TLS Web Client Authentication
            X509v3 Key Usage: 
                Digital Signature
    Signature Algorithm: sha256WithRSAEncryption
         9e:80:0e:a6:4d:e6:ed:ee:d1:26:6c:3f:13:83:b3:ea:e2:b9:
         14:a2:ab:8e:18:25:c5:79:cb:a8:8d:b6:37:93:2f:2b:0e:69:
         c1:0e:94:e4:b3:c3:14:bf:f2:8a:18:78:a7:87:fb:6f:16:6b:
         db:3c:f4:ee:e7:8c:49:c4:74:79:d8:eb:42:cc:42:9d:d9:28:
         b9:1c:f8:be:dc:d6:e0:23:8d:86:a1:75:6c:79:4e:0a:37:d9:
         42:0e:26:a8:e1:0e:7d:e7:db:ab:12:ee:bd:e9:a2:17:06:3b:
         e2:45:be:cf:ef:c0:62:4b:0c:86:ba:49:be:53:43:7c:84:11:
         d3:16:8a:fc:4a:6f:98:39:7a:50:6d:ee:18:ee:96:05:67:3e:
         23:38:00:03:1f:5e:67:82:02:df:37:a1:6d:87:08:d3:61:4c:
         bc:24:89:ee:e7:60:43:29:5d:b0:78:64:d1:0d:91:63:12:19:
         8e:03:c3:50:0a:a4:c4:8d:5f:67:fc:31:a8:dc:dd:a2:fc:70:
         a3:ef:a3:08:71:04:5b:b2:43:45:7e:52:03:7d:75:a8:ed:32:
         6e:d7:cb:f0:55:3d:a0:fa:43:0b:19:f2:ac:a5:46:b3:7d:0d:
         9c:2d:89:15:f3:14:ee:b5:59:ba:14:f6:18:6b:28:7f:02:d8:
         7b:ed:87:c0
-----BEGIN CERTIFICATE-----
MIIDbzCCAlegAwIBAgIRAJgTKSbSDzxp3mQqU1JTWlcwDQYJKoZIhvcNAQELBQAw
FjEUMBIGA1UEAwwLRWFzeS1SU0EgQ0EwHhcNMjQwNTA5MDYyMzUyWhcNMzQwNTA3
MDYyMzUyWjArMSkwJwYDVQQDDCAyMzlmNWRmZjdiNDc0NTYyZjRiNjUyNGJmMDMy
NDcyZTCCASIwDQYJKoZIhvcNAQEBBQADggEPADCCAQoCggEBALWXNPH00ZDfGpci
n6nZhpULiXbzW6tBEroOlj4wV1bHog2YZ1mn0t+5S2cC1z3yEbjtFdy/nyqYyPVU
f2tTzOS+LTNClAONUYi0LmwNCCur5AddIOyFQ66iePGesC4Nwa1c6yUAuUvZ/vHQ
1k4AOkveHdbP0eJvdeTteLNVzLYibNaTxhZgKhO9fYL16jGE7RWQwUwn7HKB3TqQ
erWny5vQItk0g+lRw+vDP9lMjgawdLBWt+IVlheRdn21ZYi4LYwxFYFo0O/xjlC8
FwRjmMkjgZWQASkR9yhidYt0bTmuNIoLqjoYoa35ehAY54Gm1GruMVc3dxRfVkFw
EbYgDgMCAwEAAaOBojCBnzAJBgNVHRMEAjAAMB0GA1UdDgQWBBRIRJBr3Qd1txTj
uvFNIKZwCCSITjBRBgNVHSMESjBIgBRA+m+0de2lmJAJwUxGQXcr6RmYqKEapBgw
FjEUMBIGA1UEAwwLRWFzeS1SU0EgQ0GCFD+Q9ZUgDBmNkYFy1IF7kqkD69z2MBMG
A1UdJQQMMAoGCCsGAQUFBwMCMAsGA1UdDwQEAwIHgDANBgkqhkiG9w0BAQsFAAOC
AQEAnoAOpk3m7e7RJmw/E4Oz6uK5FKKrjhglxXnLqI22N5MvKw5pwQ6U5LPDFL/y
ihh4p4f7bxZr2zz07ueMScR0edjrQsxCndkouRz4vtzW4CONhqF1bHlOCjfZQg4m
qOEOfefbqxLuvemiFwY74kW+z+/AYksMhrpJvlNDfIQR0xaK/EpvmDl6UG3uGO6W
BWc+IzgAAx9eZ4IC3zehbYcI02FMvCSJ7udgQyldsHhk0Q2RYxIZjgPDUAqkxI1f
Z/wxqNzdovxwo++jCHEEW7JDRX5SA311qO0ybtfL8FU9oPpDCxnyrKVGs30NnC2J
FfMU7rVZuhT2GGsofwLYe+2HwA==
-----END CERTIFICATE-----
