Certificate:
    Data:
        Version: 3 (0x2)
        Serial Number:
            a6:df:23:fd:f5:7e:12:b5:87:3f:57:64:a3:64:e1:df
        Signature Algorithm: sha256WithRSAEncryption
        Issuer: CN=Easy-RSA CA
        Validity
            Not Before: May  6 07:27:10 2024 GMT
            Not After : May  4 07:27:10 2034 GMT
        Subject: CN=lx_zhiyuan_01
        Subject Public Key Info:
            Public Key Algorithm: rsaEncryption
                RSA Public-Key: (2048 bit)
                Modulus:
                    00:d1:4a:db:61:5a:e1:1e:57:6d:96:fc:23:f6:3c:
                    8e:da:9c:d8:9d:fd:2e:92:3f:4f:79:76:66:08:5d:
                    f9:43:98:2f:de:f2:d5:cd:a8:75:24:b9:7f:6f:97:
                    f3:a8:6b:cb:f6:cf:51:79:87:8f:08:cc:21:8f:61:
                    03:2b:28:ce:e7:d4:2a:dc:ad:65:2d:8b:b6:ea:1a:
                    0e:8e:36:f1:0c:80:54:fe:0c:8b:7c:df:cf:0e:ee:
                    f7:07:f1:4b:bd:6b:7a:fa:75:3a:e1:ff:c8:88:d0:
                    19:65:5b:3d:ea:04:86:a9:ef:89:9b:ab:c4:11:22:
                    2d:8a:d2:34:e5:dc:f7:62:e3:39:c3:d5:a3:fd:f7:
                    d9:a1:7a:43:99:8b:84:89:d6:20:bf:0b:6b:27:a2:
                    b2:53:9b:51:1e:4c:58:83:13:a0:a9:8a:34:a7:ea:
                    2e:df:d5:97:9c:c4:47:a4:3f:f7:f6:3a:ce:9a:aa:
                    fc:9a:59:02:1f:2f:64:c5:56:aa:3e:25:a2:05:ef:
                    7f:7c:64:a1:fb:43:03:3f:dc:7a:5c:8d:5a:57:8a:
                    8c:ca:bf:be:ea:1e:65:db:15:90:54:56:24:c5:38:
                    cb:3d:ac:c8:98:74:e6:88:33:c7:3d:62:0c:f5:63:
                    6e:e9:f7:03:8c:a8:c8:7c:ac:a0:a0:99:6f:2f:5a:
                    7c:51
                Exponent: 65537 (0x10001)
        X509v3 extensions:
            X509v3 Basic Constraints: 
                CA:FALSE
            X509v3 Subject Key Identifier: 
                D5:68:1E:C9:1D:93:B8:FB:7C:E8:AC:9D:12:E9:38:40:93:B4:1D:EF
            X509v3 Authority Key Identifier: 
                keyid:40:FA:6F:B4:75:ED:A5:98:90:09:C1:4C:46:41:77:2B:E9:19:98:A8
                DirName:/CN=Easy-RSA CA
                serial:3F:90:F5:95:20:0C:19:8D:91:81:72:D4:81:7B:92:A9:03:EB:DC:F6

            X509v3 Extended Key Usage: 
                TLS Web Client Authentication
            X509v3 Key Usage: 
                Digital Signature
    Signature Algorithm: sha256WithRSAEncryption
         70:85:3a:e3:cc:c0:30:ba:25:9c:20:a6:de:68:ff:91:c8:ed:
         c3:aa:1f:89:a0:eb:89:5c:61:78:00:c6:a4:c4:58:ff:be:9f:
         91:eb:31:d7:c4:b8:1f:41:33:40:f4:8c:72:34:76:2e:f4:28:
         a2:85:c6:cf:ab:ec:44:35:75:91:1a:b4:6b:41:d6:64:de:da:
         74:ff:dd:d2:3f:33:88:36:4a:9f:44:36:e6:2f:02:56:b8:ed:
         e3:be:4e:bc:93:8c:ce:e9:54:92:35:88:bc:4c:23:b9:4d:d3:
         68:85:8f:c1:a7:25:00:71:0d:c2:fd:11:7a:16:8f:e0:40:0b:
         5b:93:8a:7f:50:cb:fd:ec:eb:79:95:37:e6:f6:1f:2d:36:d7:
         b6:9c:63:55:de:f8:4d:a1:1d:09:95:f1:37:30:54:0c:b1:59:
         30:91:3e:ab:3b:6b:2f:30:12:78:fe:13:d5:1d:c2:86:9f:4d:
         6c:44:2b:ff:86:39:bb:ac:1f:9c:a2:57:f1:0c:17:36:f4:2d:
         bd:cc:60:fc:7c:ae:49:b1:81:d7:26:74:a1:4e:c2:2d:77:86:
         6a:e9:12:cc:da:59:43:73:cd:ed:73:90:64:34:4b:c9:3f:3c:
         c4:97:8e:91:91:da:9b:f7:7f:c7:aa:8d:76:2b:32:47:dc:7c:
         3c:ae:7d:db
-----BEGIN CERTIFICATE-----
MIIDXDCCAkSgAwIBAgIRAKbfI/31fhK1hz9XZKNk4d8wDQYJKoZIhvcNAQELBQAw
FjEUMBIGA1UEAwwLRWFzeS1SU0EgQ0EwHhcNMjQwNTA2MDcyNzEwWhcNMzQwNTA0
MDcyNzEwWjAYMRYwFAYDVQQDDA1seF96aGl5dWFuXzAxMIIBIjANBgkqhkiG9w0B
AQEFAAOCAQ8AMIIBCgKCAQEA0UrbYVrhHldtlvwj9jyO2pzYnf0ukj9PeXZmCF35
Q5gv3vLVzah1JLl/b5fzqGvL9s9ReYePCMwhj2EDKyjO59Qq3K1lLYu26hoOjjbx
DIBU/gyLfN/PDu73B/FLvWt6+nU64f/IiNAZZVs96gSGqe+Jm6vEESItitI05dz3
YuM5w9Wj/ffZoXpDmYuEidYgvwtrJ6KyU5tRHkxYgxOgqYo0p+ou39WXnMRHpD/3
9jrOmqr8mlkCHy9kxVaqPiWiBe9/fGSh+0MDP9x6XI1aV4qMyr++6h5l2xWQVFYk
xTjLPazImHTmiDPHPWIM9WNu6fcDjKjIfKygoJlvL1p8UQIDAQABo4GiMIGfMAkG
A1UdEwQCMAAwHQYDVR0OBBYEFNVoHskdk7j7fOisnRLpOECTtB3vMFEGA1UdIwRK
MEiAFED6b7R17aWYkAnBTEZBdyvpGZiooRqkGDAWMRQwEgYDVQQDDAtFYXN5LVJT
QSBDQYIUP5D1lSAMGY2RgXLUgXuSqQPr3PYwEwYDVR0lBAwwCgYIKwYBBQUHAwIw
CwYDVR0PBAQDAgeAMA0GCSqGSIb3DQEBCwUAA4IBAQBwhTrjzMAwuiWcIKbeaP+R
yO3Dqh+JoOuJXGF4AMakxFj/vp+R6zHXxLgfQTNA9IxyNHYu9CiihcbPq+xENXWR
GrRrQdZk3tp0/93SPzOINkqfRDbmLwJWuO3jvk68k4zO6VSSNYi8TCO5TdNohY/B
pyUAcQ3C/RF6Fo/gQAtbk4p/UMv97Ot5lTfm9h8tNte2nGNV3vhNoR0JlfE3MFQM
sVkwkT6rO2svMBJ4/hPVHcKGn01sRCv/hjm7rB+colfxDBc29C29zGD8fK5JsYHX
JnShTsItd4Zq6RLM2llDc83tc5BkNEvJPzzEl46Rkdqb93/Hqo12KzJH3Hw8rn3b
-----END CERTIFICATE-----
