Certificate:
    Data:
        Version: 3 (0x2)
        Serial Number:
            a9:bd:1f:e6:39:79:b6:c5:c9:e6:a1:d7:bd:1b:4c:9c
        Signature Algorithm: sha256WithRSAEncryption
        Issuer: CN=Easy-RSA CA
        Validity
            Not Before: May 15 03:26:18 2024 GMT
            Not After : May 13 03:26:18 2034 GMT
        Subject: CN=f61f192d155e6f683a30f7e34bc018d8
        Subject Public Key Info:
            Public Key Algorithm: rsaEncryption
                Public-Key: (2048 bit)
                Modulus:
                    00:a8:4e:e6:45:18:ad:75:71:94:de:92:bb:6d:f8:
                    c4:72:26:9c:1d:ba:57:d0:e9:74:dd:49:d7:00:6d:
                    f5:03:f8:d3:c9:b7:14:c3:07:59:5a:73:2b:77:3b:
                    aa:2c:91:5d:ba:76:6a:b6:1f:00:d4:3a:5c:d8:a4:
                    fa:a9:53:82:7f:79:c6:33:23:b7:fc:7a:78:18:ae:
                    1f:c2:44:1a:6a:8d:90:c5:38:ca:f6:2f:54:c1:76:
                    e3:38:ea:7a:96:f5:ef:ed:2b:80:ed:e5:71:39:c2:
                    98:6e:ee:b7:8b:89:e6:02:7d:d1:05:3f:77:e2:1d:
                    de:c1:49:d0:df:83:80:f7:01:f9:f9:a8:d0:f5:f2:
                    3a:05:6f:4e:79:59:5c:9b:20:31:77:ac:a0:93:28:
                    50:83:73:9e:50:7d:24:f1:3f:29:65:a0:76:84:9c:
                    eb:ab:a8:94:17:02:fb:fd:7d:60:d7:45:11:36:8c:
                    d2:ab:78:7c:6a:13:04:08:1b:d5:fe:50:93:e5:d1:
                    6a:a0:5d:49:f3:06:2e:ce:e2:ac:9f:25:26:d0:c8:
                    60:fc:ef:15:2c:e2:77:b0:46:bd:1e:d1:6c:67:3c:
                    b6:e6:7a:97:2c:1c:77:f9:f8:88:a5:e8:9c:49:3c:
                    31:e4:7d:24:55:10:68:e4:f3:e4:0e:ec:93:94:34:
                    e7:ab
                Exponent: 65537 (0x10001)
        X509v3 extensions:
            X509v3 Basic Constraints: 
                CA:FALSE
            X509v3 Subject Key Identifier: 
                A6:7E:0E:C3:5C:A5:95:3E:EF:44:00:47:86:E7:21:75:67:DA:4F:68
            X509v3 Authority Key Identifier: 
                keyid:40:FA:6F:B4:75:ED:A5:98:90:09:C1:4C:46:41:77:2B:E9:19:98:A8
                DirName:/CN=Easy-RSA CA
                serial:3F:90:F5:95:20:0C:19:8D:91:81:72:D4:81:7B:92:A9:03:EB:DC:F6
            X509v3 Extended Key Usage: 
                TLS Web Client Authentication
            X509v3 Key Usage: 
                Digital Signature
    Signature Algorithm: sha256WithRSAEncryption
    Signature Value:
        37:3b:e6:de:f9:dc:1b:ff:40:df:3f:cb:0c:34:6b:51:59:ef:
        94:42:32:0d:f6:fd:2b:17:42:78:58:90:f3:9e:ad:10:61:f4:
        18:6f:1f:59:1c:00:63:3b:33:18:73:3b:2d:9f:70:c5:16:0d:
        7f:3f:ed:da:86:65:a7:de:9e:0f:42:51:32:12:76:c9:23:34:
        8a:bf:ae:03:7c:75:a4:5a:56:95:66:0a:4b:aa:47:99:66:88:
        c3:46:be:6a:a8:81:07:82:d5:f6:e8:e2:49:ad:35:2a:74:a4:
        46:d8:6d:85:54:38:41:18:c3:25:c5:b8:4f:44:f7:5b:f9:c5:
        d1:99:8f:60:95:cb:a5:92:3a:ba:a9:a5:c2:69:7c:cd:0f:86:
        44:34:0a:22:66:a0:8c:44:ee:60:34:25:43:f1:88:1c:35:42:
        77:ca:46:2a:28:7f:9e:68:aa:84:fc:83:ed:2b:13:cc:20:94:
        8c:4b:ba:98:43:ad:31:ad:28:14:5e:0c:64:5f:e7:0d:39:e0:
        20:39:2b:a2:79:70:d1:7c:b1:97:b3:50:0e:de:6b:5d:2b:45:
        14:eb:16:35:4e:45:c8:ae:6b:f8:af:33:83:53:25:61:82:86:
        37:b9:5e:bc:a0:36:cc:2c:20:e6:6d:a3:ad:c1:58:ed:72:25:
        d3:4c:bd:d0
-----BEGIN CERTIFICATE-----
MIIDbzCCAlegAwIBAgIRAKm9H+Y5ebbFyeah170bTJwwDQYJKoZIhvcNAQELBQAw
FjEUMBIGA1UEAwwLRWFzeS1SU0EgQ0EwHhcNMjQwNTE1MDMyNjE4WhcNMzQwNTEz
MDMyNjE4WjArMSkwJwYDVQQDDCBmNjFmMTkyZDE1NWU2ZjY4M2EzMGY3ZTM0YmMw
MThkODCCASIwDQYJKoZIhvcNAQEBBQADggEPADCCAQoCggEBAKhO5kUYrXVxlN6S
u234xHImnB26V9DpdN1J1wBt9QP408m3FMMHWVpzK3c7qiyRXbp2arYfANQ6XNik
+qlTgn95xjMjt/x6eBiuH8JEGmqNkMU4yvYvVMF24zjqepb17+0rgO3lcTnCmG7u
t4uJ5gJ90QU/d+Id3sFJ0N+DgPcB+fmo0PXyOgVvTnlZXJsgMXesoJMoUINznlB9
JPE/KWWgdoSc66uolBcC+/19YNdFETaM0qt4fGoTBAgb1f5Qk+XRaqBdSfMGLs7i
rJ8lJtDIYPzvFSzid7BGvR7RbGc8tuZ6lywcd/n4iKXonEk8MeR9JFUQaOTz5A7s
k5Q056sCAwEAAaOBojCBnzAJBgNVHRMEAjAAMB0GA1UdDgQWBBSmfg7DXKWVPu9E
AEeG5yF1Z9pPaDBRBgNVHSMESjBIgBRA+m+0de2lmJAJwUxGQXcr6RmYqKEapBgw
FjEUMBIGA1UEAwwLRWFzeS1SU0EgQ0GCFD+Q9ZUgDBmNkYFy1IF7kqkD69z2MBMG
A1UdJQQMMAoGCCsGAQUFBwMCMAsGA1UdDwQEAwIHgDANBgkqhkiG9w0BAQsFAAOC
AQEANzvm3vncG/9A3z/LDDRrUVnvlEIyDfb9KxdCeFiQ856tEGH0GG8fWRwAYzsz
GHM7LZ9wxRYNfz/t2oZlp96eD0JRMhJ2ySM0ir+uA3x1pFpWlWYKS6pHmWaIw0a+
aqiBB4LV9ujiSa01KnSkRththVQ4QRjDJcW4T0T3W/nF0ZmPYJXLpZI6uqmlwml8
zQ+GRDQKImagjETuYDQlQ/GIHDVCd8pGKih/nmiqhPyD7SsTzCCUjEu6mEOtMa0o
FF4MZF/nDTngIDkronlw0Xyxl7NQDt5rXStFFOsWNU5FyK5r+K8zg1MlYYKGN7le
vKA2zCwg5m2jrcFY7XIl00y90A==
-----END CERTIFICATE-----
