Certificate:
    Data:
        Version: 3 (0x2)
        Serial Number:
            ac:ef:97:a4:11:0a:25:92:77:44:1b:76:9e:d7:b2:15
        Signature Algorithm: sha256WithRSAEncryption
        Issuer: CN=Easy-RSA CA
        Validity
            Not Before: May  8 13:52:51 2024 GMT
            Not After : May  6 13:52:51 2034 GMT
        Subject: CN=239f5dff7b474562f4b6524bf032472e
        Subject Public Key Info:
            Public Key Algorithm: rsaEncryption
                RSA Public-Key: (2048 bit)
                Modulus:
                    00:b5:97:34:f1:f4:d1:90:df:1a:97:22:9f:a9:d9:
                    86:95:0b:89:76:f3:5b:ab:41:12:ba:0e:96:3e:30:
                    57:56:c7:a2:0d:98:67:59:a7:d2:df:b9:4b:67:02:
                    d7:3d:f2:11:b8:ed:15:dc:bf:9f:2a:98:c8:f5:54:
                    7f:6b:53:cc:e4:be:2d:33:42:94:03:8d:51:88:b4:
                    2e:6c:0d:08:2b:ab:e4:07:5d:20:ec:85:43:ae:a2:
                    78:f1:9e:b0:2e:0d:c1:ad:5c:eb:25:00:b9:4b:d9:
                    fe:f1:d0:d6:4e:00:3a:4b:de:1d:d6:cf:d1:e2:6f:
                    75:e4:ed:78:b3:55:cc:b6:22:6c:d6:93:c6:16:60:
                    2a:13:bd:7d:82:f5:ea:31:84:ed:15:90:c1:4c:27:
                    ec:72:81:dd:3a:90:7a:b5:a7:cb:9b:d0:22:d9:34:
                    83:e9:51:c3:eb:c3:3f:d9:4c:8e:06:b0:74:b0:56:
                    b7:e2:15:96:17:91:76:7d:b5:65:88:b8:2d:8c:31:
                    15:81:68:d0:ef:f1:8e:50:bc:17:04:63:98:c9:23:
                    81:95:90:01:29:11:f7:28:62:75:8b:74:6d:39:ae:
                    34:8a:0b:aa:3a:18:a1:ad:f9:7a:10:18:e7:81:a6:
                    d4:6a:ee:31:57:37:77:14:5f:56:41:70:11:b6:20:
                    0e:03
                Exponent: 65537 (0x10001)
        X509v3 extensions:
            X509v3 Basic Constraints: 
                CA:FALSE
            X509v3 Subject Key Identifier: 
                48:44:90:6B:DD:07:75:B7:14:E3:BA:F1:4D:20:A6:70:08:24:88:4E
            X509v3 Authority Key Identifier: 
                keyid:40:FA:6F:B4:75:ED:A5:98:90:09:C1:4C:46:41:77:2B:E9:19:98:A8
                DirName:/CN=Easy-RSA CA
                serial:3F:90:F5:95:20:0C:19:8D:91:81:72:D4:81:7B:92:A9:03:EB:DC:F6

            X509v3 Extended Key Usage: 
                TLS Web Client Authentication
            X509v3 Key Usage: 
                Digital Signature
    Signature Algorithm: sha256WithRSAEncryption
         e8:6c:cb:cd:13:f7:ab:fd:3a:15:6e:88:1d:69:ea:32:4c:c5:
         05:76:94:6b:19:7d:b8:09:e5:85:d6:2e:22:f7:96:9f:8c:19:
         c3:a0:f0:8b:1d:0d:53:49:c0:b4:52:5f:84:51:65:ad:e6:19:
         94:a1:f4:7a:eb:da:c7:66:0b:44:00:cc:14:b8:da:e6:8b:a3:
         82:6f:b0:cd:5a:ed:86:94:f6:46:81:95:d1:4a:61:0c:27:2f:
         86:cd:b3:79:43:f4:ef:29:0e:00:b3:35:79:a1:4a:d3:a1:05:
         aa:41:92:e5:9e:69:5e:26:25:13:05:07:8e:18:af:19:45:6c:
         3d:5d:3a:23:6b:53:38:0e:5a:29:7f:80:c3:33:2f:82:5b:53:
         a0:4a:a0:9b:c5:e5:e8:14:36:25:9a:c6:37:e8:a6:f5:90:a5:
         11:d6:ca:88:ea:a1:34:45:26:c5:96:91:0c:bc:d7:75:8a:46:
         09:2e:cf:89:8b:9e:3c:90:64:29:ba:5f:6f:4d:63:8f:b8:d0:
         5d:63:31:68:52:c7:f7:e8:66:88:de:71:89:a1:da:2e:41:89:
         08:5a:0d:fd:22:2f:87:51:e0:30:25:f9:98:05:aa:da:d2:1f:
         a2:33:16:b6:16:99:2a:a4:2a:e1:d6:05:09:db:d9:b7:04:fa:
         49:3e:8a:de
-----BEGIN CERTIFICATE-----
MIIDbzCCAlegAwIBAgIRAKzvl6QRCiWSd0Qbdp7XshUwDQYJKoZIhvcNAQELBQAw
FjEUMBIGA1UEAwwLRWFzeS1SU0EgQ0EwHhcNMjQwNTA4MTM1MjUxWhcNMzQwNTA2
MTM1MjUxWjArMSkwJwYDVQQDDCAyMzlmNWRmZjdiNDc0NTYyZjRiNjUyNGJmMDMy
NDcyZTCCASIwDQYJKoZIhvcNAQEBBQADggEPADCCAQoCggEBALWXNPH00ZDfGpci
n6nZhpULiXbzW6tBEroOlj4wV1bHog2YZ1mn0t+5S2cC1z3yEbjtFdy/nyqYyPVU
f2tTzOS+LTNClAONUYi0LmwNCCur5AddIOyFQ66iePGesC4Nwa1c6yUAuUvZ/vHQ
1k4AOkveHdbP0eJvdeTteLNVzLYibNaTxhZgKhO9fYL16jGE7RWQwUwn7HKB3TqQ
erWny5vQItk0g+lRw+vDP9lMjgawdLBWt+IVlheRdn21ZYi4LYwxFYFo0O/xjlC8
FwRjmMkjgZWQASkR9yhidYt0bTmuNIoLqjoYoa35ehAY54Gm1GruMVc3dxRfVkFw
EbYgDgMCAwEAAaOBojCBnzAJBgNVHRMEAjAAMB0GA1UdDgQWBBRIRJBr3Qd1txTj
uvFNIKZwCCSITjBRBgNVHSMESjBIgBRA+m+0de2lmJAJwUxGQXcr6RmYqKEapBgw
FjEUMBIGA1UEAwwLRWFzeS1SU0EgQ0GCFD+Q9ZUgDBmNkYFy1IF7kqkD69z2MBMG
A1UdJQQMMAoGCCsGAQUFBwMCMAsGA1UdDwQEAwIHgDANBgkqhkiG9w0BAQsFAAOC
AQEA6GzLzRP3q/06FW6IHWnqMkzFBXaUaxl9uAnlhdYuIveWn4wZw6Dwix0NU0nA
tFJfhFFlreYZlKH0euvax2YLRADMFLja5oujgm+wzVrthpT2RoGV0UphDCcvhs2z
eUP07ykOALM1eaFK06EFqkGS5Z5pXiYlEwUHjhivGUVsPV06I2tTOA5aKX+AwzMv
gltToEqgm8Xl6BQ2JZrGN+im9ZClEdbKiOqhNEUmxZaRDLzXdYpGCS7PiYuePJBk
Kbpfb01jj7jQXWMxaFLH9+hmiN5xiaHaLkGJCFoN/SIvh1HgMCX5mAWq2tIfojMW
thaZKqQq4dYFCdvZtwT6ST6K3g==
-----END CERTIFICATE-----
