Certificate:
    Data:
        Version: 3 (0x2)
        Serial Number:
            b4:d0:e1:e5:60:5f:14:27:49:c4:aa:2f:a8:fe:cd:b3
        Signature Algorithm: sha256WithRSAEncryption
        Issuer: CN=Easy-RSA CA
        Validity
            Not Before: May 14 12:02:45 2024 GMT
            Not After : May 12 12:02:45 2034 GMT
        Subject: CN=test
        Subject Public Key Info:
            Public Key Algorithm: rsaEncryption
                Public-Key: (2048 bit)
                Modulus:
                    00:b3:d0:cd:42:2d:ee:a8:fb:d8:6f:61:17:45:eb:
                    87:1b:28:10:24:48:0a:8d:e9:05:37:1f:8e:14:21:
                    40:e2:fc:24:b8:cf:a3:8f:33:bf:be:59:5a:13:b8:
                    04:77:6d:9f:d9:04:86:a9:7f:67:db:25:ff:a2:ec:
                    ac:67:a8:96:fa:90:97:ec:72:5a:e1:bd:84:20:f2:
                    2f:de:bd:91:da:23:fe:ec:9a:7d:47:90:08:8f:d7:
                    a0:83:3b:17:b5:f2:e1:0f:05:d5:b5:ea:57:85:d2:
                    56:15:d3:e1:8e:88:a0:0e:59:b4:e3:48:81:6d:9e:
                    77:eb:fe:74:7c:15:1c:bf:04:a3:a1:e0:cd:8e:52:
                    42:9f:05:21:1c:d1:db:f5:fe:57:8d:0c:5f:76:bd:
                    94:b9:08:14:0e:d7:dd:db:0b:6e:cf:66:af:6e:2e:
                    e5:4b:fb:81:ea:ca:5c:63:b0:01:e8:63:b4:72:e2:
                    43:82:3c:b3:7d:bf:01:4c:14:83:47:e5:27:a2:c5:
                    86:a2:ee:da:f9:17:57:72:31:50:cd:95:66:b7:8b:
                    63:18:11:db:8b:66:ab:39:8d:b0:fa:da:1b:4d:a1:
                    78:1d:1c:45:80:46:9c:4f:11:5a:d6:2c:03:71:74:
                    c0:60:80:02:d9:34:09:61:99:c7:3f:ba:7f:e4:47:
                    17:91
                Exponent: 65537 (0x10001)
        X509v3 extensions:
            X509v3 Basic Constraints: 
                CA:FALSE
            X509v3 Subject Key Identifier: 
                4F:87:F4:91:9A:BF:E6:12:91:68:E9:CB:0F:8A:44:A2:25:B2:17:F9
            X509v3 Authority Key Identifier: 
                keyid:40:FA:6F:B4:75:ED:A5:98:90:09:C1:4C:46:41:77:2B:E9:19:98:A8
                DirName:/CN=Easy-RSA CA
                serial:3F:90:F5:95:20:0C:19:8D:91:81:72:D4:81:7B:92:A9:03:EB:DC:F6
            X509v3 Extended Key Usage: 
                TLS Web Client Authentication
            X509v3 Key Usage: 
                Digital Signature
    Signature Algorithm: sha256WithRSAEncryption
    Signature Value:
        01:66:56:d4:15:ea:60:3e:59:ea:72:e9:8e:5f:61:fe:07:a4:
        b9:ab:97:e2:f7:94:a8:20:79:84:c5:b3:e9:ad:98:5d:6c:d5:
        7b:f4:b9:d2:8f:70:0c:a7:35:4b:e7:03:65:45:3f:10:73:d1:
        ac:1b:43:f9:2f:8d:bf:cb:75:38:4c:b5:fa:1b:a9:71:25:ce:
        5d:82:8b:96:84:ae:09:cd:64:0d:c8:f7:3a:b7:36:a6:60:f1:
        bf:2f:d8:6f:b0:6a:87:d6:45:a1:ba:6c:18:97:d2:8d:c6:2b:
        96:e9:8e:d6:e2:49:e4:3a:c6:3b:e2:79:1a:c2:7d:67:cd:ba:
        93:63:35:2c:e8:d7:13:29:09:5f:10:8e:43:d5:8e:0b:6d:14:
        af:56:ff:9a:99:16:cd:32:8e:7d:46:15:71:75:ff:60:43:f3:
        b0:48:f8:ee:70:66:c9:2e:08:88:5b:93:c8:67:2b:65:df:a6:
        91:3b:6b:39:ca:39:48:11:d5:4c:6f:e3:6c:fb:c0:9a:6b:e8:
        4e:1b:8c:29:d7:f6:8d:ea:af:80:f5:90:56:cf:23:cc:a2:f7:
        83:dd:37:cf:69:2d:ce:9c:e2:19:03:83:d8:b2:e4:1b:d4:dc:
        ab:18:3a:8b:b1:04:16:79:ca:c9:e0:30:84:58:cd:26:cf:6b:
        d9:65:f9:62
-----BEGIN CERTIFICATE-----
MIIDUzCCAjugAwIBAgIRALTQ4eVgXxQnScSqL6j+zbMwDQYJKoZIhvcNAQELBQAw
FjEUMBIGA1UEAwwLRWFzeS1SU0EgQ0EwHhcNMjQwNTE0MTIwMjQ1WhcNMzQwNTEy
MTIwMjQ1WjAPMQ0wCwYDVQQDDAR0ZXN0MIIBIjANBgkqhkiG9w0BAQEFAAOCAQ8A
MIIBCgKCAQEAs9DNQi3uqPvYb2EXReuHGygQJEgKjekFNx+OFCFA4vwkuM+jjzO/
vllaE7gEd22f2QSGqX9n2yX/ouysZ6iW+pCX7HJa4b2EIPIv3r2R2iP+7Jp9R5AI
j9eggzsXtfLhDwXVtepXhdJWFdPhjoigDlm040iBbZ536/50fBUcvwSjoeDNjlJC
nwUhHNHb9f5XjQxfdr2UuQgUDtfd2wtuz2avbi7lS/uB6spcY7AB6GO0cuJDgjyz
fb8BTBSDR+UnosWGou7a+RdXcjFQzZVmt4tjGBHbi2arOY2w+tobTaF4HRxFgEac
TxFa1iwDcXTAYIAC2TQJYZnHP7p/5EcXkQIDAQABo4GiMIGfMAkGA1UdEwQCMAAw
HQYDVR0OBBYEFE+H9JGav+YSkWjpyw+KRKIlshf5MFEGA1UdIwRKMEiAFED6b7R1
7aWYkAnBTEZBdyvpGZiooRqkGDAWMRQwEgYDVQQDDAtFYXN5LVJTQSBDQYIUP5D1
lSAMGY2RgXLUgXuSqQPr3PYwEwYDVR0lBAwwCgYIKwYBBQUHAwIwCwYDVR0PBAQD
AgeAMA0GCSqGSIb3DQEBCwUAA4IBAQABZlbUFepgPlnqcumOX2H+B6S5q5fi95So
IHmExbPprZhdbNV79LnSj3AMpzVL5wNlRT8Qc9GsG0P5L42/y3U4TLX6G6lxJc5d
gouWhK4JzWQNyPc6tzamYPG/L9hvsGqH1kWhumwYl9KNxiuW6Y7W4knkOsY74nka
wn1nzbqTYzUs6NcTKQlfEI5D1Y4LbRSvVv+amRbNMo59RhVxdf9gQ/OwSPjucGbJ
LgiIW5PIZytl36aRO2s5yjlIEdVMb+Ns+8Caa+hOG4wp1/aN6q+A9ZBWzyPMoveD
3TfPaS3OnOIZA4PYsuQb1NyrGDqLsQQWecrJ4DCEWM0mz2vZZfli
-----END CERTIFICATE-----
