Certificate:
    Data:
        Version: 3 (0x2)
        Serial Number:
            b5:9d:16:82:98:80:97:ca:e2:0a:e1:b5:bf:40:d3:a2
        Signature Algorithm: sha256WithRSAEncryption
        Issuer: CN=Easy-RSA CA
        Validity
            Not Before: May 15 02:25:20 2024 GMT
            Not After : May 13 02:25:20 2034 GMT
        Subject: CN=0383718faa03b44a99265071bfad725d
        Subject Public Key Info:
            Public Key Algorithm: rsaEncryption
                Public-Key: (2048 bit)
                Modulus:
                    00:c5:2f:16:06:5e:0d:3b:8f:51:d9:d5:88:80:bb:
                    a7:11:0b:2c:78:ef:bc:7b:e0:13:f1:fa:a8:a8:0d:
                    ed:ee:46:fa:b4:3f:48:fe:74:e9:86:06:e8:db:2f:
                    5c:2a:b4:69:9a:55:02:12:fa:96:f6:03:23:c4:5e:
                    a2:82:92:a9:ad:57:d3:56:d9:4a:14:8a:83:c8:67:
                    19:e7:ac:09:dc:70:48:ae:bd:28:f3:7b:7d:77:7f:
                    77:15:d2:01:78:88:b3:22:02:92:0f:a3:f6:3f:d7:
                    9e:88:01:28:23:47:d8:7a:a0:30:31:c1:8f:01:a3:
                    74:4f:e7:e5:21:1a:1e:28:8d:ab:70:ff:41:69:ab:
                    aa:0c:41:22:b4:4f:37:ce:98:39:7c:e4:02:18:69:
                    03:ac:07:29:06:91:94:12:ed:55:07:47:5a:df:f7:
                    88:6a:fa:d9:70:40:52:6f:c9:7b:b8:92:5b:07:f7:
                    76:b1:48:9b:5f:a0:2b:83:9f:27:48:c7:e3:c1:fc:
                    32:dc:bf:af:c1:1a:60:54:a7:4a:c6:64:9d:41:ca:
                    d7:b5:82:b4:3e:69:a3:9b:df:b8:47:43:5d:4a:ce:
                    f3:74:48:27:da:a5:c7:7c:f6:13:bb:28:18:67:f5:
                    62:8f:ee:38:26:cd:b7:b7:c7:02:ec:90:fa:a5:df:
                    f0:1f
                Exponent: 65537 (0x10001)
        X509v3 extensions:
            X509v3 Basic Constraints: 
                CA:FALSE
            X509v3 Subject Key Identifier: 
                5A:80:F1:92:FB:29:24:7E:EF:CF:7C:13:21:18:3F:22:E0:58:A2:6C
            X509v3 Authority Key Identifier: 
                keyid:40:FA:6F:B4:75:ED:A5:98:90:09:C1:4C:46:41:77:2B:E9:19:98:A8
                DirName:/CN=Easy-RSA CA
                serial:3F:90:F5:95:20:0C:19:8D:91:81:72:D4:81:7B:92:A9:03:EB:DC:F6
            X509v3 Extended Key Usage: 
                TLS Web Client Authentication
            X509v3 Key Usage: 
                Digital Signature
    Signature Algorithm: sha256WithRSAEncryption
    Signature Value:
        9f:72:d9:0d:36:21:7c:cf:07:28:6a:8f:fb:de:58:f7:9d:18:
        ac:b3:c7:90:3d:79:35:0e:78:32:da:1a:f5:7f:db:74:24:c1:
        0d:29:bc:ed:e0:07:7d:f3:67:ac:57:12:90:02:c4:ed:41:eb:
        50:74:55:e4:cd:3e:9d:d9:c7:8e:dd:ac:a9:b7:f9:cc:19:fe:
        42:2f:5d:66:fc:9e:5d:d1:fd:71:2b:6d:23:f5:d5:cf:60:77:
        f6:93:bb:74:0f:35:4b:74:c6:9b:e0:0d:10:8f:d1:61:64:de:
        50:df:98:12:7e:f8:7d:84:78:08:70:d1:c6:ba:7b:39:7b:73:
        84:07:ea:f9:98:d7:1a:3e:ea:df:53:35:38:50:2f:1c:e7:42:
        fd:15:1d:bf:26:2f:76:21:9b:f8:ad:2c:fc:17:4e:de:ec:59:
        f2:6c:91:dd:43:d3:c6:bd:16:f0:f3:9d:50:07:e3:10:4c:c8:
        5b:39:5a:ad:00:60:3e:a0:28:95:4c:3f:1e:48:72:d7:89:63:
        8e:5f:61:a8:69:d6:50:e1:57:8c:9c:71:ec:5c:83:4d:7b:e0:
        ba:bf:b1:62:bb:bc:66:32:df:ca:4b:53:87:fc:c6:79:be:a5:
        b5:29:b6:69:27:44:ee:77:e4:1a:c3:a7:50:c9:23:13:62:90:
        99:f0:eb:34
-----BEGIN CERTIFICATE-----
MIIDbzCCAlegAwIBAgIRALWdFoKYgJfK4grhtb9A06IwDQYJKoZIhvcNAQELBQAw
FjEUMBIGA1UEAwwLRWFzeS1SU0EgQ0EwHhcNMjQwNTE1MDIyNTIwWhcNMzQwNTEz
MDIyNTIwWjArMSkwJwYDVQQDDCAwMzgzNzE4ZmFhMDNiNDRhOTkyNjUwNzFiZmFk
NzI1ZDCCASIwDQYJKoZIhvcNAQEBBQADggEPADCCAQoCggEBAMUvFgZeDTuPUdnV
iIC7pxELLHjvvHvgE/H6qKgN7e5G+rQ/SP506YYG6NsvXCq0aZpVAhL6lvYDI8Re
ooKSqa1X01bZShSKg8hnGeesCdxwSK69KPN7fXd/dxXSAXiIsyICkg+j9j/XnogB
KCNH2HqgMDHBjwGjdE/n5SEaHiiNq3D/QWmrqgxBIrRPN86YOXzkAhhpA6wHKQaR
lBLtVQdHWt/3iGr62XBAUm/Je7iSWwf3drFIm1+gK4OfJ0jH48H8Mty/r8EaYFSn
SsZknUHK17WCtD5po5vfuEdDXUrO83RIJ9qlx3z2E7soGGf1Yo/uOCbNt7fHAuyQ
+qXf8B8CAwEAAaOBojCBnzAJBgNVHRMEAjAAMB0GA1UdDgQWBBRagPGS+ykkfu/P
fBMhGD8i4FiibDBRBgNVHSMESjBIgBRA+m+0de2lmJAJwUxGQXcr6RmYqKEapBgw
FjEUMBIGA1UEAwwLRWFzeS1SU0EgQ0GCFD+Q9ZUgDBmNkYFy1IF7kqkD69z2MBMG
A1UdJQQMMAoGCCsGAQUFBwMCMAsGA1UdDwQEAwIHgDANBgkqhkiG9w0BAQsFAAOC
AQEAn3LZDTYhfM8HKGqP+95Y950YrLPHkD15NQ54Mtoa9X/bdCTBDSm87eAHffNn
rFcSkALE7UHrUHRV5M0+ndnHjt2sqbf5zBn+Qi9dZvyeXdH9cSttI/XVz2B39pO7
dA81S3TGm+ANEI/RYWTeUN+YEn74fYR4CHDRxrp7OXtzhAfq+ZjXGj7q31M1OFAv
HOdC/RUdvyYvdiGb+K0s/BdO3uxZ8myR3UPTxr0W8POdUAfjEEzIWzlarQBgPqAo
lUw/Hkhy14ljjl9hqGnWUOFXjJxx7FyDTXvgur+xYru8ZjLfyktTh/zGeb6ltSm2
aSdE7nfkGsOnUMkjE2KQmfDrNA==
-----END CERTIFICATE-----
