Certificate:
    Data:
        Version: 3 (0x2)
        Serial Number:
            c0:7d:79:26:70:21:53:c8:e6:4d:72:ce:ed:68:9e:45
        Signature Algorithm: sha256WithRSAEncryption
        Issuer: CN=Easy-RSA CA
        Validity
            Not Before: May 15 02:38:32 2024 GMT
            Not After : May 13 02:38:32 2034 GMT
        Subject: CN=75891c215fa472036c240d83dddd8b74
        Subject Public Key Info:
            Public Key Algorithm: rsaEncryption
                Public-Key: (2048 bit)
                Modulus:
                    00:a9:6e:b3:88:6c:84:26:9a:d3:c2:3f:5f:fc:fb:
                    03:6a:87:b0:ad:7c:8a:c3:b4:9f:69:d1:5c:49:88:
                    35:2f:e3:84:52:a9:4f:ea:cd:2a:52:7a:14:fd:14:
                    76:98:53:64:57:c4:f6:47:5b:30:4b:de:55:eb:f1:
                    b8:df:2d:37:54:e7:c1:70:78:81:9f:07:9a:4b:9a:
                    d1:20:0c:12:f3:62:38:39:90:9f:94:70:46:f2:3a:
                    f4:20:00:ca:b2:e8:83:5e:00:d2:e2:a7:c2:4d:11:
                    80:c7:c7:91:ae:99:92:e8:e7:74:1b:99:20:5e:6d:
                    c9:0e:52:b4:43:97:d1:7b:93:2f:40:70:13:09:bf:
                    fd:99:b1:63:b9:d1:1a:97:34:c0:9f:39:79:fb:1f:
                    ee:7f:d4:82:e1:7d:ac:c4:2b:2b:5b:16:bb:66:7b:
                    2f:e9:7f:94:e4:5f:3a:93:71:74:74:7d:af:7d:6f:
                    7f:21:2d:68:68:ef:ef:3f:4a:bc:c7:3b:4a:bc:bb:
                    e9:ea:79:a4:a4:cd:9b:31:3d:cc:e6:77:f6:de:e0:
                    26:0e:b8:ba:64:d0:95:ab:dd:24:13:05:c3:7b:6f:
                    7e:9f:3d:c4:38:34:54:b2:7e:eb:a9:93:ba:53:47:
                    8c:30:5e:33:49:e3:5e:72:15:9c:76:e9:e6:ae:7b:
                    cb:75
                Exponent: 65537 (0x10001)
        X509v3 extensions:
            X509v3 Basic Constraints: 
                CA:FALSE
            X509v3 Subject Key Identifier: 
                1D:B3:79:2B:4C:97:10:F2:13:E9:70:50:8C:34:72:E2:2C:4E:2B:55
            X509v3 Authority Key Identifier: 
                keyid:40:FA:6F:B4:75:ED:A5:98:90:09:C1:4C:46:41:77:2B:E9:19:98:A8
                DirName:/CN=Easy-RSA CA
                serial:3F:90:F5:95:20:0C:19:8D:91:81:72:D4:81:7B:92:A9:03:EB:DC:F6
            X509v3 Extended Key Usage: 
                TLS Web Client Authentication
            X509v3 Key Usage: 
                Digital Signature
    Signature Algorithm: sha256WithRSAEncryption
    Signature Value:
        69:99:f3:64:e8:9f:7f:87:3f:a9:c6:f4:9b:fd:24:ef:0d:23:
        c5:b9:d5:d2:40:c2:6c:62:a7:75:eb:76:f3:fa:74:97:e1:57:
        24:3b:b7:c2:57:f3:c5:c0:34:27:1a:09:7d:d3:40:98:45:39:
        11:c3:c6:7a:fe:fc:2d:48:e1:bc:63:61:54:60:2b:74:22:a5:
        4e:ea:80:3a:9e:f1:39:6f:3d:49:c5:22:1d:83:bd:c8:4a:c6:
        31:4f:c9:3e:5e:c5:e0:a9:00:c9:a0:bb:2c:b6:58:27:00:82:
        94:b9:5d:26:55:d3:38:37:3c:26:16:eb:81:1b:e7:bd:fe:38:
        90:ee:ca:8a:ad:55:42:79:89:04:a5:59:29:dd:c0:da:3f:19:
        50:7b:3d:47:49:31:e0:2a:2d:05:8c:01:4e:9b:84:43:52:23:
        e1:71:c4:ef:f2:a8:23:1b:a9:11:62:e3:57:1b:20:52:dd:55:
        f3:e0:a4:4b:29:88:67:10:b1:38:87:6e:7a:d8:5b:d4:eb:3a:
        4e:d1:c7:f9:e2:f0:96:fc:1c:59:c4:e4:eb:0c:56:e7:ce:5c:
        3c:85:24:ce:2f:16:80:da:2f:89:69:fa:c7:85:61:f0:e6:11:
        f3:47:b9:75:e5:bd:93:5d:81:d2:d1:2c:c9:0a:71:72:1b:49:
        df:dd:f4:6b
-----BEGIN CERTIFICATE-----
MIIDbzCCAlegAwIBAgIRAMB9eSZwIVPI5k1yzu1onkUwDQYJKoZIhvcNAQELBQAw
FjEUMBIGA1UEAwwLRWFzeS1SU0EgQ0EwHhcNMjQwNTE1MDIzODMyWhcNMzQwNTEz
MDIzODMyWjArMSkwJwYDVQQDDCA3NTg5MWMyMTVmYTQ3MjAzNmMyNDBkODNkZGRk
OGI3NDCCASIwDQYJKoZIhvcNAQEBBQADggEPADCCAQoCggEBAKlus4hshCaa08I/
X/z7A2qHsK18isO0n2nRXEmINS/jhFKpT+rNKlJ6FP0UdphTZFfE9kdbMEveVevx
uN8tN1TnwXB4gZ8Hmkua0SAMEvNiODmQn5RwRvI69CAAyrLog14A0uKnwk0RgMfH
ka6ZkujndBuZIF5tyQ5StEOX0XuTL0BwEwm//ZmxY7nRGpc0wJ85efsf7n/UguF9
rMQrK1sWu2Z7L+l/lORfOpNxdHR9r31vfyEtaGjv7z9KvMc7Sry76ep5pKTNmzE9
zOZ39t7gJg64umTQlavdJBMFw3tvfp89xDg0VLJ+66mTulNHjDBeM0njXnIVnHbp
5q57y3UCAwEAAaOBojCBnzAJBgNVHRMEAjAAMB0GA1UdDgQWBBQds3krTJcQ8hPp
cFCMNHLiLE4rVTBRBgNVHSMESjBIgBRA+m+0de2lmJAJwUxGQXcr6RmYqKEapBgw
FjEUMBIGA1UEAwwLRWFzeS1SU0EgQ0GCFD+Q9ZUgDBmNkYFy1IF7kqkD69z2MBMG
A1UdJQQMMAoGCCsGAQUFBwMCMAsGA1UdDwQEAwIHgDANBgkqhkiG9w0BAQsFAAOC
AQEAaZnzZOiff4c/qcb0m/0k7w0jxbnV0kDCbGKndet28/p0l+FXJDu3wlfzxcA0
JxoJfdNAmEU5EcPGev78LUjhvGNhVGArdCKlTuqAOp7xOW89ScUiHYO9yErGMU/J
Pl7F4KkAyaC7LLZYJwCClLldJlXTODc8JhbrgRvnvf44kO7Kiq1VQnmJBKVZKd3A
2j8ZUHs9R0kx4CotBYwBTpuEQ1Ij4XHE7/KoIxupEWLjVxsgUt1V8+CkSymIZxCx
OIduethb1Os6TtHH+eLwlvwcWcTk6wxW585cPIUkzi8WgNoviWn6x4Vh8OYR80e5
deW9k12B0tEsyQpxchtJ3930aw==
-----END CERTIFICATE-----
