Certificate:
    Data:
        Version: 3 (0x2)
        Serial Number:
            c7:c6:eb:6b:b5:2b:8d:8c:8f:35:6b:b5:64:94:d2:04
        Signature Algorithm: sha256WithRSAEncryption
        Issuer: CN=Easy-RSA CA
        Validity
            Not Before: May  8 13:51:17 2024 GMT
            Not After : May  6 13:51:17 2034 GMT
        Subject: CN=239f5dff7b474562f4b6524bf032472e
        Subject Public Key Info:
            Public Key Algorithm: rsaEncryption
                RSA Public-Key: (2048 bit)
                Modulus:
                    00:b5:97:34:f1:f4:d1:90:df:1a:97:22:9f:a9:d9:
                    86:95:0b:89:76:f3:5b:ab:41:12:ba:0e:96:3e:30:
                    57:56:c7:a2:0d:98:67:59:a7:d2:df:b9:4b:67:02:
                    d7:3d:f2:11:b8:ed:15:dc:bf:9f:2a:98:c8:f5:54:
                    7f:6b:53:cc:e4:be:2d:33:42:94:03:8d:51:88:b4:
                    2e:6c:0d:08:2b:ab:e4:07:5d:20:ec:85:43:ae:a2:
                    78:f1:9e:b0:2e:0d:c1:ad:5c:eb:25:00:b9:4b:d9:
                    fe:f1:d0:d6:4e:00:3a:4b:de:1d:d6:cf:d1:e2:6f:
                    75:e4:ed:78:b3:55:cc:b6:22:6c:d6:93:c6:16:60:
                    2a:13:bd:7d:82:f5:ea:31:84:ed:15:90:c1:4c:27:
                    ec:72:81:dd:3a:90:7a:b5:a7:cb:9b:d0:22:d9:34:
                    83:e9:51:c3:eb:c3:3f:d9:4c:8e:06:b0:74:b0:56:
                    b7:e2:15:96:17:91:76:7d:b5:65:88:b8:2d:8c:31:
                    15:81:68:d0:ef:f1:8e:50:bc:17:04:63:98:c9:23:
                    81:95:90:01:29:11:f7:28:62:75:8b:74:6d:39:ae:
                    34:8a:0b:aa:3a:18:a1:ad:f9:7a:10:18:e7:81:a6:
                    d4:6a:ee:31:57:37:77:14:5f:56:41:70:11:b6:20:
                    0e:03
                Exponent: 65537 (0x10001)
        X509v3 extensions:
            X509v3 Basic Constraints: 
                CA:FALSE
            X509v3 Subject Key Identifier: 
                48:44:90:6B:DD:07:75:B7:14:E3:BA:F1:4D:20:A6:70:08:24:88:4E
            X509v3 Authority Key Identifier: 
                keyid:40:FA:6F:B4:75:ED:A5:98:90:09:C1:4C:46:41:77:2B:E9:19:98:A8
                DirName:/CN=Easy-RSA CA
                serial:3F:90:F5:95:20:0C:19:8D:91:81:72:D4:81:7B:92:A9:03:EB:DC:F6

            X509v3 Extended Key Usage: 
                TLS Web Client Authentication
            X509v3 Key Usage: 
                Digital Signature
    Signature Algorithm: sha256WithRSAEncryption
         3a:56:2b:fb:f1:4d:b1:d2:70:67:2b:b9:00:81:f0:c4:9c:c2:
         df:ef:78:c2:7f:e9:94:0f:6f:ef:8b:7c:9b:60:dc:cc:99:a9:
         60:a2:3d:dd:17:fc:9b:04:d3:0d:f8:ce:36:7e:3f:18:2b:ac:
         bf:a9:70:91:86:a1:64:2a:4d:44:89:9e:ae:e2:c3:85:ee:41:
         96:13:93:20:3a:34:05:35:7f:27:ce:3b:d3:9a:10:71:78:18:
         07:75:6d:e6:97:1a:62:a5:88:4d:ef:69:04:cd:ee:b1:e2:66:
         a9:c0:dc:eb:76:3b:48:40:ab:e3:1a:1e:ed:2f:98:f3:cf:e5:
         b0:46:d5:09:34:82:a3:9a:2e:9e:b2:b8:60:a9:24:71:53:17:
         fb:da:1a:54:ed:a6:23:37:e6:ba:d5:39:f2:1d:0c:c1:26:9f:
         23:bd:3a:b2:03:a9:2f:75:f1:52:f4:e0:ee:6d:d3:eb:12:30:
         93:62:b4:ba:11:c0:36:7c:0b:a4:52:92:46:0c:e0:6a:5d:b1:
         f0:34:cb:01:80:9f:c0:54:dd:6d:a1:8c:57:b4:48:55:64:8d:
         37:ce:1a:30:30:81:70:e1:88:c3:69:5d:03:e0:34:b4:00:b1:
         15:5d:54:7b:41:1c:b5:b4:23:79:9d:95:66:0c:62:6d:b3:71:
         c9:6c:0c:87
-----BEGIN CERTIFICATE-----
MIIDbzCCAlegAwIBAgIRAMfG62u1K42MjzVrtWSU0gQwDQYJKoZIhvcNAQELBQAw
FjEUMBIGA1UEAwwLRWFzeS1SU0EgQ0EwHhcNMjQwNTA4MTM1MTE3WhcNMzQwNTA2
MTM1MTE3WjArMSkwJwYDVQQDDCAyMzlmNWRmZjdiNDc0NTYyZjRiNjUyNGJmMDMy
NDcyZTCCASIwDQYJKoZIhvcNAQEBBQADggEPADCCAQoCggEBALWXNPH00ZDfGpci
n6nZhpULiXbzW6tBEroOlj4wV1bHog2YZ1mn0t+5S2cC1z3yEbjtFdy/nyqYyPVU
f2tTzOS+LTNClAONUYi0LmwNCCur5AddIOyFQ66iePGesC4Nwa1c6yUAuUvZ/vHQ
1k4AOkveHdbP0eJvdeTteLNVzLYibNaTxhZgKhO9fYL16jGE7RWQwUwn7HKB3TqQ
erWny5vQItk0g+lRw+vDP9lMjgawdLBWt+IVlheRdn21ZYi4LYwxFYFo0O/xjlC8
FwRjmMkjgZWQASkR9yhidYt0bTmuNIoLqjoYoa35ehAY54Gm1GruMVc3dxRfVkFw
EbYgDgMCAwEAAaOBojCBnzAJBgNVHRMEAjAAMB0GA1UdDgQWBBRIRJBr3Qd1txTj
uvFNIKZwCCSITjBRBgNVHSMESjBIgBRA+m+0de2lmJAJwUxGQXcr6RmYqKEapBgw
FjEUMBIGA1UEAwwLRWFzeS1SU0EgQ0GCFD+Q9ZUgDBmNkYFy1IF7kqkD69z2MBMG
A1UdJQQMMAoGCCsGAQUFBwMCMAsGA1UdDwQEAwIHgDANBgkqhkiG9w0BAQsFAAOC
AQEAOlYr+/FNsdJwZyu5AIHwxJzC3+94wn/plA9v74t8m2DczJmpYKI93Rf8mwTT
DfjONn4/GCusv6lwkYahZCpNRImeruLDhe5BlhOTIDo0BTV/J84705oQcXgYB3Vt
5pcaYqWITe9pBM3useJmqcDc63Y7SECr4xoe7S+Y88/lsEbVCTSCo5ounrK4YKkk
cVMX+9oaVO2mIzfmutU58h0MwSafI706sgOpL3XxUvTg7m3T6xIwk2K0uhHANnwL
pFKSRgzgal2x8DTLAYCfwFTdbaGMV7RIVWSNN84aMDCBcOGIw2ldA+A0tACxFV1U
e0EctbQjeZ2VZgxibbNxyWwMhw==
-----END CERTIFICATE-----
