Certificate:
    Data:
        Version: 3 (0x2)
        Serial Number:
            cb:c7:1b:08:27:60:ca:25:ad:5b:0c:87:42:af:97:cc
        Signature Algorithm: sha256WithRSAEncryption
        Issuer: CN=Easy-RSA CA
        Validity
            Not Before: May  7 06:59:30 2024 GMT
            Not After : May  5 06:59:30 2034 GMT
        Subject: CN=win_junmix_pc
        Subject Public Key Info:
            Public Key Algorithm: rsaEncryption
                RSA Public-Key: (2048 bit)
                Modulus:
                    00:ec:42:ed:3c:bf:87:c1:35:2b:00:87:20:f8:6a:
                    d4:05:63:b8:3d:f4:c8:55:0a:23:99:e3:ae:53:b9:
                    94:5b:b8:07:e1:08:5e:0a:07:cf:df:8d:53:4b:12:
                    14:0f:84:a0:a3:c5:5d:41:af:55:3d:a6:37:87:fa:
                    c0:71:c4:1e:23:fd:79:75:f9:0e:5c:41:4c:4f:73:
                    58:74:68:71:90:85:d7:ea:0d:2c:a1:d7:1d:6f:88:
                    43:7e:f3:d6:55:a1:d9:da:8e:ce:a6:c4:8f:2e:14:
                    87:80:97:9d:38:70:bc:4d:ed:de:5b:c5:b6:d0:4a:
                    84:95:13:a9:92:c7:cc:f5:c9:57:7e:5b:59:e7:d5:
                    d0:02:50:c4:84:24:2d:fe:51:e7:e1:01:90:39:39:
                    77:d2:1f:f7:1c:83:2c:f3:20:26:3b:23:ed:85:80:
                    73:4f:8b:a7:ea:4c:d2:92:f6:d4:60:88:61:55:61:
                    06:da:d0:9c:b9:c5:51:01:d7:fa:32:5c:4f:df:47:
                    22:ed:b1:3b:e6:f0:3b:f6:6a:78:da:01:9c:d8:45:
                    23:67:7b:63:c7:6e:f8:3c:cf:fe:61:c3:f1:4c:ba:
                    73:bb:28:01:43:be:22:f9:af:a4:ab:7d:bd:c8:bd:
                    75:82:c7:d5:81:4c:a7:87:50:1d:6e:8d:26:4b:29:
                    3a:bd
                Exponent: 65537 (0x10001)
        X509v3 extensions:
            X509v3 Basic Constraints: 
                CA:FALSE
            X509v3 Subject Key Identifier: 
                E4:BA:18:0F:E7:4E:7B:5D:B4:9B:B9:CE:B8:AE:30:AC:F8:74:27:25
            X509v3 Authority Key Identifier: 
                keyid:40:FA:6F:B4:75:ED:A5:98:90:09:C1:4C:46:41:77:2B:E9:19:98:A8
                DirName:/CN=Easy-RSA CA
                serial:3F:90:F5:95:20:0C:19:8D:91:81:72:D4:81:7B:92:A9:03:EB:DC:F6

            X509v3 Extended Key Usage: 
                TLS Web Client Authentication
            X509v3 Key Usage: 
                Digital Signature
    Signature Algorithm: sha256WithRSAEncryption
         da:f8:fd:e3:67:81:35:bc:2d:6f:e5:b4:d7:96:1c:f9:60:4c:
         69:ab:3f:ae:aa:0b:5e:d6:57:e7:cd:07:36:49:3b:fa:fc:9a:
         33:47:a7:0b:35:a5:af:88:49:33:20:aa:8f:38:7d:fa:fe:fc:
         f0:be:3b:98:dc:ca:a9:70:ae:55:b7:eb:ab:8d:4c:9e:5f:5d:
         78:95:7d:73:6b:97:88:b3:77:7b:1e:f7:6c:f4:a9:76:eb:96:
         e7:7a:5b:55:eb:d9:72:3e:5e:07:e3:a3:71:89:c3:82:c7:63:
         ec:d9:c6:20:15:06:ec:ac:b3:f7:e9:8c:a9:b9:62:56:03:da:
         e3:18:b8:a2:11:2d:4b:7d:cf:b8:be:15:71:16:d3:d2:08:85:
         6c:00:5c:d3:4a:82:a8:2e:c5:de:b3:df:fd:b5:13:b6:b0:82:
         25:be:5a:ba:ae:e0:1d:ea:33:7d:f9:e5:fe:b8:c9:83:42:62:
         b3:37:58:a0:08:b4:47:5d:6e:cb:0d:79:14:e3:a4:0c:0e:4c:
         31:48:cb:77:12:50:98:60:f0:d6:51:1c:63:30:ee:fd:f7:ed:
         e3:82:62:51:69:72:b2:b8:e2:ad:8f:62:7c:ba:a4:36:5b:c9:
         11:6b:1e:84:e3:b5:4b:71:90:b5:1b:69:65:9c:4d:40:0c:c7:
         53:87:f6:96
-----BEGIN CERTIFICATE-----
MIIDXDCCAkSgAwIBAgIRAMvHGwgnYMolrVsMh0Kvl8wwDQYJKoZIhvcNAQELBQAw
FjEUMBIGA1UEAwwLRWFzeS1SU0EgQ0EwHhcNMjQwNTA3MDY1OTMwWhcNMzQwNTA1
MDY1OTMwWjAYMRYwFAYDVQQDDA13aW5fanVubWl4X3BjMIIBIjANBgkqhkiG9w0B
AQEFAAOCAQ8AMIIBCgKCAQEA7ELtPL+HwTUrAIcg+GrUBWO4PfTIVQojmeOuU7mU
W7gH4QheCgfP341TSxIUD4Sgo8VdQa9VPaY3h/rAccQeI/15dfkOXEFMT3NYdGhx
kIXX6g0sodcdb4hDfvPWVaHZ2o7OpsSPLhSHgJedOHC8Te3eW8W20EqElROpksfM
9clXfltZ59XQAlDEhCQt/lHn4QGQOTl30h/3HIMs8yAmOyPthYBzT4un6kzSkvbU
YIhhVWEG2tCcucVRAdf6MlxP30ci7bE75vA79mp42gGc2EUjZ3tjx274PM/+YcPx
TLpzuygBQ74i+a+kq329yL11gsfVgUynh1Adbo0mSyk6vQIDAQABo4GiMIGfMAkG
A1UdEwQCMAAwHQYDVR0OBBYEFOS6GA/nTntdtJu5zriuMKz4dCclMFEGA1UdIwRK
MEiAFED6b7R17aWYkAnBTEZBdyvpGZiooRqkGDAWMRQwEgYDVQQDDAtFYXN5LVJT
QSBDQYIUP5D1lSAMGY2RgXLUgXuSqQPr3PYwEwYDVR0lBAwwCgYIKwYBBQUHAwIw
CwYDVR0PBAQDAgeAMA0GCSqGSIb3DQEBCwUAA4IBAQDa+P3jZ4E1vC1v5bTXlhz5
YExpqz+uqgte1lfnzQc2STv6/JozR6cLNaWviEkzIKqPOH36/vzwvjuY3MqpcK5V
t+urjUyeX114lX1za5eIs3d7Hvds9Kl265bneltV69lyPl4H46NxicOCx2Ps2cYg
FQbsrLP36YypuWJWA9rjGLiiES1Lfc+4vhVxFtPSCIVsAFzTSoKoLsXes9/9tRO2
sIIlvlq6ruAd6jN9+eX+uMmDQmKzN1igCLRHXW7LDXkU46QMDkwxSMt3ElCYYPDW
URxjMO799+3jgmJRaXKyuOKtj2J8uqQ2W8kRax6E47VLcZC1G2llnE1ADMdTh/aW
-----END CERTIFICATE-----
