Certificate:
    Data:
        Version: 3 (0x2)
        Serial Number:
            d5:08:52:81:ae:16:b4:35:da:1e:dc:1f:e6:2d:58:d5
        Signature Algorithm: sha256WithRSAEncryption
        Issuer: CN=Easy-RSA CA
        Validity
            Not Before: May  8 07:09:11 2024 GMT
            Not After : May  6 07:09:11 2034 GMT
        Subject: CN=239f5dff7b474562f4b6524bf032472e
        Subject Public Key Info:
            Public Key Algorithm: rsaEncryption
                RSA Public-Key: (2048 bit)
                Modulus:
                    00:b5:97:34:f1:f4:d1:90:df:1a:97:22:9f:a9:d9:
                    86:95:0b:89:76:f3:5b:ab:41:12:ba:0e:96:3e:30:
                    57:56:c7:a2:0d:98:67:59:a7:d2:df:b9:4b:67:02:
                    d7:3d:f2:11:b8:ed:15:dc:bf:9f:2a:98:c8:f5:54:
                    7f:6b:53:cc:e4:be:2d:33:42:94:03:8d:51:88:b4:
                    2e:6c:0d:08:2b:ab:e4:07:5d:20:ec:85:43:ae:a2:
                    78:f1:9e:b0:2e:0d:c1:ad:5c:eb:25:00:b9:4b:d9:
                    fe:f1:d0:d6:4e:00:3a:4b:de:1d:d6:cf:d1:e2:6f:
                    75:e4:ed:78:b3:55:cc:b6:22:6c:d6:93:c6:16:60:
                    2a:13:bd:7d:82:f5:ea:31:84:ed:15:90:c1:4c:27:
                    ec:72:81:dd:3a:90:7a:b5:a7:cb:9b:d0:22:d9:34:
                    83:e9:51:c3:eb:c3:3f:d9:4c:8e:06:b0:74:b0:56:
                    b7:e2:15:96:17:91:76:7d:b5:65:88:b8:2d:8c:31:
                    15:81:68:d0:ef:f1:8e:50:bc:17:04:63:98:c9:23:
                    81:95:90:01:29:11:f7:28:62:75:8b:74:6d:39:ae:
                    34:8a:0b:aa:3a:18:a1:ad:f9:7a:10:18:e7:81:a6:
                    d4:6a:ee:31:57:37:77:14:5f:56:41:70:11:b6:20:
                    0e:03
                Exponent: 65537 (0x10001)
        X509v3 extensions:
            X509v3 Basic Constraints: 
                CA:FALSE
            X509v3 Subject Key Identifier: 
                48:44:90:6B:DD:07:75:B7:14:E3:BA:F1:4D:20:A6:70:08:24:88:4E
            X509v3 Authority Key Identifier: 
                keyid:40:FA:6F:B4:75:ED:A5:98:90:09:C1:4C:46:41:77:2B:E9:19:98:A8
                DirName:/CN=Easy-RSA CA
                serial:3F:90:F5:95:20:0C:19:8D:91:81:72:D4:81:7B:92:A9:03:EB:DC:F6

            X509v3 Extended Key Usage: 
                TLS Web Client Authentication
            X509v3 Key Usage: 
                Digital Signature
    Signature Algorithm: sha256WithRSAEncryption
         04:a7:77:6e:02:c4:5f:fe:91:f1:38:7f:c9:31:e3:44:fa:d3:
         ef:ba:c5:1a:b8:28:25:9d:b6:d4:04:19:38:4a:59:27:b9:d4:
         48:c3:d4:ce:44:3d:a3:80:29:38:82:5b:3a:e9:9f:41:da:76:
         e9:04:ec:c4:d9:bb:5a:01:99:66:b2:fa:85:bf:e1:70:4f:02:
         50:fa:dd:cf:a3:f8:4e:84:46:2d:ec:81:d4:2a:c4:83:f1:fc:
         15:d0:b2:45:b7:5c:4b:43:7f:a2:c0:e4:93:04:bd:c4:c6:f1:
         1e:d2:f3:f2:48:e2:d9:50:5e:39:44:91:83:a1:84:76:70:90:
         3e:5b:4b:3c:4d:94:b8:30:8b:af:23:ff:d2:ba:93:8e:c5:6a:
         2f:62:15:e1:df:6f:fd:3c:33:07:09:5e:cd:f3:b1:73:38:78:
         b6:04:66:ab:62:35:d6:9e:ad:ce:c1:a0:29:e7:46:52:3f:a8:
         8b:7d:7d:b8:50:99:44:91:80:a6:97:fa:1d:53:32:50:99:d6:
         e3:9b:51:9f:b5:1d:16:ad:5e:c9:0e:36:7b:0f:44:f7:59:46:
         cd:db:89:b9:ad:46:b5:ea:c8:3b:1b:2e:21:3f:63:d7:ac:2a:
         5a:ea:4b:5a:cb:22:78:e7:72:1c:67:38:0d:75:4f:df:aa:cc:
         af:4f:74:d2
-----BEGIN CERTIFICATE-----
MIIDbzCCAlegAwIBAgIRANUIUoGuFrQ12h7cH+YtWNUwDQYJKoZIhvcNAQELBQAw
FjEUMBIGA1UEAwwLRWFzeS1SU0EgQ0EwHhcNMjQwNTA4MDcwOTExWhcNMzQwNTA2
MDcwOTExWjArMSkwJwYDVQQDDCAyMzlmNWRmZjdiNDc0NTYyZjRiNjUyNGJmMDMy
NDcyZTCCASIwDQYJKoZIhvcNAQEBBQADggEPADCCAQoCggEBALWXNPH00ZDfGpci
n6nZhpULiXbzW6tBEroOlj4wV1bHog2YZ1mn0t+5S2cC1z3yEbjtFdy/nyqYyPVU
f2tTzOS+LTNClAONUYi0LmwNCCur5AddIOyFQ66iePGesC4Nwa1c6yUAuUvZ/vHQ
1k4AOkveHdbP0eJvdeTteLNVzLYibNaTxhZgKhO9fYL16jGE7RWQwUwn7HKB3TqQ
erWny5vQItk0g+lRw+vDP9lMjgawdLBWt+IVlheRdn21ZYi4LYwxFYFo0O/xjlC8
FwRjmMkjgZWQASkR9yhidYt0bTmuNIoLqjoYoa35ehAY54Gm1GruMVc3dxRfVkFw
EbYgDgMCAwEAAaOBojCBnzAJBgNVHRMEAjAAMB0GA1UdDgQWBBRIRJBr3Qd1txTj
uvFNIKZwCCSITjBRBgNVHSMESjBIgBRA+m+0de2lmJAJwUxGQXcr6RmYqKEapBgw
FjEUMBIGA1UEAwwLRWFzeS1SU0EgQ0GCFD+Q9ZUgDBmNkYFy1IF7kqkD69z2MBMG
A1UdJQQMMAoGCCsGAQUFBwMCMAsGA1UdDwQEAwIHgDANBgkqhkiG9w0BAQsFAAOC
AQEABKd3bgLEX/6R8Th/yTHjRPrT77rFGrgoJZ221AQZOEpZJ7nUSMPUzkQ9o4Ap
OIJbOumfQdp26QTsxNm7WgGZZrL6hb/hcE8CUPrdz6P4ToRGLeyB1CrEg/H8FdCy
RbdcS0N/osDkkwS9xMbxHtLz8kji2VBeOUSRg6GEdnCQPltLPE2UuDCLryP/0rqT
jsVqL2IV4d9v/TwzBwlezfOxczh4tgRmq2I11p6tzsGgKedGUj+oi319uFCZRJGA
ppf6HVMyUJnW45tRn7UdFq1eyQ42ew9E91lGzduJua1GterIOxsuIT9j16wqWupL
WssieOdyHGc4DXVP36rMr0900g==
-----END CERTIFICATE-----
