Certificate:
    Data:
        Version: 3 (0x2)
        Serial Number:
            d7:de:2c:d1:8a:d7:65:31:0e:47:73:16:ba:c4:ca:ac
        Signature Algorithm: sha256WithRSAEncryption
        Issuer: CN=Easy-RSA CA
        Validity
            Not Before: May 15 02:25:38 2024 GMT
            Not After : May 13 02:25:38 2034 GMT
        Subject: CN=79e6f0ad474a145ad45f2a437539a9f7
        Subject Public Key Info:
            Public Key Algorithm: rsaEncryption
                Public-Key: (2048 bit)
                Modulus:
                    00:cd:00:23:1f:8f:86:9f:cf:4d:05:97:e2:1f:01:
                    fe:8c:5f:43:90:02:ae:0e:34:1d:e3:14:fe:cb:4d:
                    11:d8:39:55:aa:cb:48:3d:00:5e:d2:0a:62:7b:06:
                    4e:f3:35:16:d0:68:73:6a:aa:96:8a:a1:58:ca:4b:
                    93:4a:fb:a6:53:9e:0d:06:68:43:0e:9d:29:de:1b:
                    ab:80:84:ef:e3:fd:1a:ca:e2:2b:80:b8:7e:4b:93:
                    16:01:7c:7b:ce:45:ba:e5:e0:11:5e:31:bd:94:35:
                    9b:32:a4:87:ef:5d:86:02:fb:0c:80:bb:3f:de:14:
                    cc:d2:e2:fa:e3:be:0e:6f:bf:28:87:63:0c:25:e7:
                    bb:7e:73:4e:82:82:90:5b:cf:0f:0f:ac:fa:6a:54:
                    6d:b5:c5:51:91:54:86:4f:c7:54:76:d8:b9:55:58:
                    bd:ca:7f:93:e7:6c:b8:e7:dc:08:44:6c:af:25:ec:
                    ab:ab:63:a1:fe:62:70:ad:bd:c0:83:c8:e5:fe:c2:
                    83:57:30:9a:6f:a9:1e:78:76:d9:26:fe:56:2d:1d:
                    04:54:1e:1c:15:fa:84:ad:f1:d7:a0:7f:eb:ce:51:
                    da:e3:60:fe:d4:5c:6a:d3:7b:49:c8:bb:a0:71:e7:
                    f7:0b:2c:4f:93:7d:fe:46:ed:e1:f6:12:b2:75:24:
                    83:3d
                Exponent: 65537 (0x10001)
        X509v3 extensions:
            X509v3 Basic Constraints: 
                CA:FALSE
            X509v3 Subject Key Identifier: 
                2A:38:17:D0:18:F8:2D:3E:9E:79:1F:E5:1C:61:92:F8:46:28:7A:A1
            X509v3 Authority Key Identifier: 
                keyid:40:FA:6F:B4:75:ED:A5:98:90:09:C1:4C:46:41:77:2B:E9:19:98:A8
                DirName:/CN=Easy-RSA CA
                serial:3F:90:F5:95:20:0C:19:8D:91:81:72:D4:81:7B:92:A9:03:EB:DC:F6
            X509v3 Extended Key Usage: 
                TLS Web Client Authentication
            X509v3 Key Usage: 
                Digital Signature
    Signature Algorithm: sha256WithRSAEncryption
    Signature Value:
        36:03:2f:ef:0e:37:e6:b6:f7:73:92:c9:1e:03:58:25:1e:ea:
        12:2a:69:35:d1:0d:a1:d8:8e:57:fa:a9:83:eb:32:40:0d:ec:
        a6:3b:27:3a:8b:ce:73:c3:d6:b9:c0:e0:03:38:22:a4:c4:a0:
        0b:b3:23:b8:ff:50:5f:46:16:92:41:a5:9b:f1:dc:53:92:a8:
        ee:f9:36:ed:c8:55:77:65:78:48:d5:7d:fa:59:60:4a:23:d0:
        3d:c0:d7:bf:34:f2:5a:14:86:07:ee:18:23:0b:8b:e5:33:49:
        75:ab:ff:f0:26:18:81:a2:c8:e1:c6:5d:8b:81:ec:82:b7:c7:
        eb:67:2d:2b:27:63:fd:ef:4a:de:2d:97:75:f6:94:9e:92:8e:
        49:fc:f8:c8:91:f6:f3:02:15:88:97:d0:2f:5d:a7:98:3c:6a:
        32:aa:c6:5f:58:80:19:b5:3e:6d:5d:cf:4a:5b:92:3b:05:8e:
        11:07:f3:89:34:c1:0a:98:eb:2b:6b:a4:57:0f:46:bc:77:54:
        89:50:f3:64:a8:89:5d:43:5f:6a:3b:e8:13:05:86:26:99:ff:
        44:46:05:4e:e6:51:c1:fa:5f:d3:a1:38:4b:30:b3:86:7b:6b:
        e5:50:7a:b8:bb:4f:8b:fb:a1:75:09:b5:5b:f7:69:d8:8f:b0:
        9d:f0:d5:e9
-----BEGIN CERTIFICATE-----
MIIDbzCCAlegAwIBAgIRANfeLNGK12UxDkdzFrrEyqwwDQYJKoZIhvcNAQELBQAw
FjEUMBIGA1UEAwwLRWFzeS1SU0EgQ0EwHhcNMjQwNTE1MDIyNTM4WhcNMzQwNTEz
MDIyNTM4WjArMSkwJwYDVQQDDCA3OWU2ZjBhZDQ3NGExNDVhZDQ1ZjJhNDM3NTM5
YTlmNzCCASIwDQYJKoZIhvcNAQEBBQADggEPADCCAQoCggEBAM0AIx+Php/PTQWX
4h8B/oxfQ5ACrg40HeMU/stNEdg5VarLSD0AXtIKYnsGTvM1FtBoc2qqloqhWMpL
k0r7plOeDQZoQw6dKd4bq4CE7+P9GsriK4C4fkuTFgF8e85FuuXgEV4xvZQ1mzKk
h+9dhgL7DIC7P94UzNLi+uO+Dm+/KIdjDCXnu35zToKCkFvPDw+s+mpUbbXFUZFU
hk/HVHbYuVVYvcp/k+dsuOfcCERsryXsq6tjof5icK29wIPI5f7Cg1cwmm+pHnh2
2Sb+Vi0dBFQeHBX6hK3x16B/685R2uNg/tRcatN7Sci7oHHn9wssT5N9/kbt4fYS
snUkgz0CAwEAAaOBojCBnzAJBgNVHRMEAjAAMB0GA1UdDgQWBBQqOBfQGPgtPp55
H+UcYZL4Rih6oTBRBgNVHSMESjBIgBRA+m+0de2lmJAJwUxGQXcr6RmYqKEapBgw
FjEUMBIGA1UEAwwLRWFzeS1SU0EgQ0GCFD+Q9ZUgDBmNkYFy1IF7kqkD69z2MBMG
A1UdJQQMMAoGCCsGAQUFBwMCMAsGA1UdDwQEAwIHgDANBgkqhkiG9w0BAQsFAAOC
AQEANgMv7w435rb3c5LJHgNYJR7qEippNdENodiOV/qpg+syQA3spjsnOovOc8PW
ucDgAzgipMSgC7MjuP9QX0YWkkGlm/HcU5Ko7vk27chVd2V4SNV9+llgSiPQPcDX
vzTyWhSGB+4YIwuL5TNJdav/8CYYgaLI4cZdi4HsgrfH62ctKydj/e9K3i2XdfaU
npKOSfz4yJH28wIViJfQL12nmDxqMqrGX1iAGbU+bV3PSluSOwWOEQfziTTBCpjr
K2ukVw9GvHdUiVDzZKiJXUNfajvoEwWGJpn/REYFTuZRwfpf06E4SzCzhntr5VB6
uLtPi/uhdQm1W/dp2I+wnfDV6Q==
-----END CERTIFICATE-----
