Certificate:
    Data:
        Version: 3 (0x2)
        Serial Number:
            df:b5:34:9c:84:3c:97:4f:f1:40:d6:2c:0e:d1:30:27
        Signature Algorithm: sha256WithRSAEncryption
        Issuer: CN=Easy-RSA CA
        Validity
            Not Before: May  7 06:58:56 2024 GMT
            Not After : May  5 06:58:56 2034 GMT
        Subject: CN=lx_zhiyuan_01
        Subject Public Key Info:
            Public Key Algorithm: rsaEncryption
                RSA Public-Key: (2048 bit)
                Modulus:
                    00:d1:4a:db:61:5a:e1:1e:57:6d:96:fc:23:f6:3c:
                    8e:da:9c:d8:9d:fd:2e:92:3f:4f:79:76:66:08:5d:
                    f9:43:98:2f:de:f2:d5:cd:a8:75:24:b9:7f:6f:97:
                    f3:a8:6b:cb:f6:cf:51:79:87:8f:08:cc:21:8f:61:
                    03:2b:28:ce:e7:d4:2a:dc:ad:65:2d:8b:b6:ea:1a:
                    0e:8e:36:f1:0c:80:54:fe:0c:8b:7c:df:cf:0e:ee:
                    f7:07:f1:4b:bd:6b:7a:fa:75:3a:e1:ff:c8:88:d0:
                    19:65:5b:3d:ea:04:86:a9:ef:89:9b:ab:c4:11:22:
                    2d:8a:d2:34:e5:dc:f7:62:e3:39:c3:d5:a3:fd:f7:
                    d9:a1:7a:43:99:8b:84:89:d6:20:bf:0b:6b:27:a2:
                    b2:53:9b:51:1e:4c:58:83:13:a0:a9:8a:34:a7:ea:
                    2e:df:d5:97:9c:c4:47:a4:3f:f7:f6:3a:ce:9a:aa:
                    fc:9a:59:02:1f:2f:64:c5:56:aa:3e:25:a2:05:ef:
                    7f:7c:64:a1:fb:43:03:3f:dc:7a:5c:8d:5a:57:8a:
                    8c:ca:bf:be:ea:1e:65:db:15:90:54:56:24:c5:38:
                    cb:3d:ac:c8:98:74:e6:88:33:c7:3d:62:0c:f5:63:
                    6e:e9:f7:03:8c:a8:c8:7c:ac:a0:a0:99:6f:2f:5a:
                    7c:51
                Exponent: 65537 (0x10001)
        X509v3 extensions:
            X509v3 Basic Constraints: 
                CA:FALSE
            X509v3 Subject Key Identifier: 
                D5:68:1E:C9:1D:93:B8:FB:7C:E8:AC:9D:12:E9:38:40:93:B4:1D:EF
            X509v3 Authority Key Identifier: 
                keyid:40:FA:6F:B4:75:ED:A5:98:90:09:C1:4C:46:41:77:2B:E9:19:98:A8
                DirName:/CN=Easy-RSA CA
                serial:3F:90:F5:95:20:0C:19:8D:91:81:72:D4:81:7B:92:A9:03:EB:DC:F6

            X509v3 Extended Key Usage: 
                TLS Web Client Authentication
            X509v3 Key Usage: 
                Digital Signature
    Signature Algorithm: sha256WithRSAEncryption
         d2:2f:5e:78:4c:af:42:f7:0a:3e:17:52:fd:86:84:dc:2f:34:
         b1:d2:b4:a7:b2:06:3c:71:6a:cf:d9:d8:e4:29:a5:50:1d:18:
         70:0a:8a:c0:a6:48:15:17:7c:77:1c:ff:d3:82:a6:07:2b:7a:
         d2:22:25:c5:37:17:af:5a:63:d6:42:0a:ed:44:f7:42:6a:84:
         81:c0:d2:34:99:74:d3:7b:e7:04:68:41:97:e6:85:32:77:27:
         52:37:1e:e1:75:ad:ed:a3:a4:df:ec:68:7f:1f:53:15:44:d7:
         af:1b:44:0b:6e:9b:ca:b6:b5:14:df:a1:89:aa:eb:5e:2a:88:
         9b:c5:e3:a3:89:f5:62:31:83:e2:5a:fe:0e:04:2a:1a:5b:5f:
         bd:f0:94:6b:36:a1:0b:93:62:db:e9:16:0c:4a:6b:ca:93:ac:
         56:a1:ec:3f:98:e2:fc:88:8b:f1:61:13:90:67:6f:25:ba:c1:
         30:c7:62:13:bc:9e:13:4d:a0:88:6d:c7:b9:36:07:7b:d1:07:
         95:fd:19:cf:f1:1d:f4:d6:0e:45:a3:e1:c0:93:45:65:13:51:
         d8:ce:b5:98:e3:17:63:35:e0:c6:19:1a:70:a8:c5:3b:8b:50:
         f4:59:36:f4:df:33:6c:1d:c3:47:44:6b:55:55:b8:8b:73:6f:
         c3:51:4e:65
-----BEGIN CERTIFICATE-----
MIIDXDCCAkSgAwIBAgIRAN+1NJyEPJdP8UDWLA7RMCcwDQYJKoZIhvcNAQELBQAw
FjEUMBIGA1UEAwwLRWFzeS1SU0EgQ0EwHhcNMjQwNTA3MDY1ODU2WhcNMzQwNTA1
MDY1ODU2WjAYMRYwFAYDVQQDDA1seF96aGl5dWFuXzAxMIIBIjANBgkqhkiG9w0B
AQEFAAOCAQ8AMIIBCgKCAQEA0UrbYVrhHldtlvwj9jyO2pzYnf0ukj9PeXZmCF35
Q5gv3vLVzah1JLl/b5fzqGvL9s9ReYePCMwhj2EDKyjO59Qq3K1lLYu26hoOjjbx
DIBU/gyLfN/PDu73B/FLvWt6+nU64f/IiNAZZVs96gSGqe+Jm6vEESItitI05dz3
YuM5w9Wj/ffZoXpDmYuEidYgvwtrJ6KyU5tRHkxYgxOgqYo0p+ou39WXnMRHpD/3
9jrOmqr8mlkCHy9kxVaqPiWiBe9/fGSh+0MDP9x6XI1aV4qMyr++6h5l2xWQVFYk
xTjLPazImHTmiDPHPWIM9WNu6fcDjKjIfKygoJlvL1p8UQIDAQABo4GiMIGfMAkG
A1UdEwQCMAAwHQYDVR0OBBYEFNVoHskdk7j7fOisnRLpOECTtB3vMFEGA1UdIwRK
MEiAFED6b7R17aWYkAnBTEZBdyvpGZiooRqkGDAWMRQwEgYDVQQDDAtFYXN5LVJT
QSBDQYIUP5D1lSAMGY2RgXLUgXuSqQPr3PYwEwYDVR0lBAwwCgYIKwYBBQUHAwIw
CwYDVR0PBAQDAgeAMA0GCSqGSIb3DQEBCwUAA4IBAQDSL154TK9C9wo+F1L9hoTc
LzSx0rSnsgY8cWrP2djkKaVQHRhwCorApkgVF3x3HP/TgqYHK3rSIiXFNxevWmPW
QgrtRPdCaoSBwNI0mXTTe+cEaEGX5oUydydSNx7hda3to6Tf7Gh/H1MVRNevG0QL
bpvKtrUU36GJquteKoibxeOjifViMYPiWv4OBCoaW1+98JRrNqELk2Lb6RYMSmvK
k6xWoew/mOL8iIvxYROQZ28lusEwx2ITvJ4TTaCIbce5Ngd70QeV/RnP8R301g5F
o+HAk0VlE1HYzrWY4xdjNeDGGRpwqMU7i1D0WTb03zNsHcNHRGtVVbiLc2/DUU5l
-----END CERTIFICATE-----
