Certificate:
    Data:
        Version: 3 (0x2)
        Serial Number:
            e4:2f:39:04:aa:a9:5d:1c:72:8c:a6:3c:43:64:6b:cd
        Signature Algorithm: sha256WithRSAEncryption
        Issuer: CN=Easy-RSA CA
        Validity
            Not Before: May 14 09:52:27 2024 GMT
            Not After : May 12 09:52:27 2034 GMT
        Subject: CN=d1e21ef1e406254bcf64714a297077ed
        Subject Public Key Info:
            Public Key Algorithm: rsaEncryption
                RSA Public-Key: (2048 bit)
                Modulus:
                    00:c2:c2:d6:69:57:dc:2a:c8:00:70:1f:3c:1b:50:
                    ed:f1:b7:24:0a:f3:cf:45:48:1f:e1:a8:63:50:40:
                    52:b7:92:5a:d9:9d:66:22:f9:00:10:85:4b:9e:71:
                    49:e2:16:e2:b4:4a:f7:bd:38:c1:54:b4:4b:82:db:
                    1c:ba:91:69:b9:57:1f:bd:a6:64:28:13:82:c8:25:
                    0e:0f:0d:82:ff:33:2e:2e:cb:b6:71:b1:f1:e6:0d:
                    bf:97:44:0f:e0:1d:da:9d:66:68:8a:13:10:09:60:
                    50:7a:7d:ca:d2:a9:42:1e:be:01:5f:46:d6:b4:21:
                    fc:e7:f5:1f:bf:64:be:46:6e:4c:b8:f4:0e:f4:80:
                    ab:48:8f:1a:5c:69:6e:f3:5f:99:a3:5e:59:17:3a:
                    25:00:9a:33:73:bb:8f:a6:42:05:c7:15:ff:e8:0e:
                    3b:3c:2b:8d:c0:e9:50:64:98:02:a0:fb:7a:da:0d:
                    9a:d4:e0:74:c7:56:29:5f:6a:db:1c:ab:b3:c0:95:
                    12:4a:6d:ba:38:75:3e:0c:a2:25:96:c0:db:fa:3b:
                    82:45:ee:7b:d8:bb:d1:92:6e:04:54:7e:3b:96:50:
                    c9:17:40:95:11:09:88:b5:7c:e7:ee:e4:24:56:e0:
                    05:60:b3:9f:32:92:8c:0d:83:ce:1c:80:bb:fd:76:
                    59:5f
                Exponent: 65537 (0x10001)
        X509v3 extensions:
            X509v3 Basic Constraints: 
                CA:FALSE
            X509v3 Subject Key Identifier: 
                10:E0:82:BF:C0:9E:C7:3F:C6:5B:E2:C4:25:52:6D:79:EB:75:68:37
            X509v3 Authority Key Identifier: 
                keyid:40:FA:6F:B4:75:ED:A5:98:90:09:C1:4C:46:41:77:2B:E9:19:98:A8
                DirName:/CN=Easy-RSA CA
                serial:3F:90:F5:95:20:0C:19:8D:91:81:72:D4:81:7B:92:A9:03:EB:DC:F6

            X509v3 Extended Key Usage: 
                TLS Web Client Authentication
            X509v3 Key Usage: 
                Digital Signature
    Signature Algorithm: sha256WithRSAEncryption
         82:d4:d3:63:a5:a3:b3:69:b4:78:ef:7f:4f:46:ab:75:17:75:
         23:c2:08:fa:fa:29:a5:1b:32:5b:6a:f7:1e:2e:fd:f4:16:88:
         2f:58:78:e9:1f:a7:1b:b6:ba:b5:ec:fa:98:d8:f0:cc:84:be:
         a3:fd:fb:44:ba:18:cd:20:9f:c3:28:ab:bb:d1:2d:02:c9:1e:
         4e:e0:5f:21:d5:bd:55:93:e5:79:8d:ca:03:2b:19:0c:98:02:
         90:88:1a:78:33:d5:53:9a:ee:33:e4:e0:bd:07:96:47:9f:69:
         d3:3c:4e:b6:46:22:06:7e:c6:85:8b:e8:21:f8:9a:1e:70:ad:
         35:3c:eb:6e:bf:d3:19:14:46:30:d0:b9:4b:79:79:84:d6:d7:
         d6:b3:14:4b:d4:7b:a2:21:3f:ce:16:cc:d2:a7:55:df:61:b4:
         c0:54:ab:56:cf:66:c8:2d:b9:25:84:91:7b:64:5f:44:c3:89:
         36:9d:b9:f4:3e:25:ed:db:f2:d4:92:67:49:e3:ab:8e:d3:5e:
         7d:ce:20:5b:29:22:3f:6d:3f:b9:3e:75:72:1d:be:fb:86:58:
         c5:0a:92:af:1c:51:5b:43:c0:b9:fc:3f:24:8b:e7:f3:09:9f:
         41:13:be:a2:9a:78:08:bc:4b:5e:01:df:eb:72:94:72:03:22:
         72:5f:03:52
-----BEGIN CERTIFICATE-----
MIIDbzCCAlegAwIBAgIRAOQvOQSqqV0ccoymPENka80wDQYJKoZIhvcNAQELBQAw
FjEUMBIGA1UEAwwLRWFzeS1SU0EgQ0EwHhcNMjQwNTE0MDk1MjI3WhcNMzQwNTEy
MDk1MjI3WjArMSkwJwYDVQQDDCBkMWUyMWVmMWU0MDYyNTRiY2Y2NDcxNGEyOTcw
NzdlZDCCASIwDQYJKoZIhvcNAQEBBQADggEPADCCAQoCggEBAMLC1mlX3CrIAHAf
PBtQ7fG3JArzz0VIH+GoY1BAUreSWtmdZiL5ABCFS55xSeIW4rRK9704wVS0S4Lb
HLqRablXH72mZCgTgsglDg8Ngv8zLi7LtnGx8eYNv5dED+Ad2p1maIoTEAlgUHp9
ytKpQh6+AV9G1rQh/Of1H79kvkZuTLj0DvSAq0iPGlxpbvNfmaNeWRc6JQCaM3O7
j6ZCBccV/+gOOzwrjcDpUGSYAqD7etoNmtTgdMdWKV9q2xyrs8CVEkptujh1Pgyi
JZbA2/o7gkXue9i70ZJuBFR+O5ZQyRdAlREJiLV85+7kJFbgBWCznzKSjA2DzhyA
u/12WV8CAwEAAaOBojCBnzAJBgNVHRMEAjAAMB0GA1UdDgQWBBQQ4IK/wJ7HP8Zb
4sQlUm1563VoNzBRBgNVHSMESjBIgBRA+m+0de2lmJAJwUxGQXcr6RmYqKEapBgw
FjEUMBIGA1UEAwwLRWFzeS1SU0EgQ0GCFD+Q9ZUgDBmNkYFy1IF7kqkD69z2MBMG
A1UdJQQMMAoGCCsGAQUFBwMCMAsGA1UdDwQEAwIHgDANBgkqhkiG9w0BAQsFAAOC
AQEAgtTTY6Wjs2m0eO9/T0ardRd1I8II+voppRsyW2r3Hi799BaIL1h46R+nG7a6
tez6mNjwzIS+o/37RLoYzSCfwyiru9EtAskeTuBfIdW9VZPleY3KAysZDJgCkIga
eDPVU5ruM+TgvQeWR59p0zxOtkYiBn7GhYvoIfiaHnCtNTzrbr/TGRRGMNC5S3l5
hNbX1rMUS9R7oiE/zhbM0qdV32G0wFSrVs9myC25JYSRe2RfRMOJNp259D4l7dvy
1JJnSeOrjtNefc4gWykiP20/uT51ch2++4ZYxQqSrxxRW0PAufw/JIvn8wmfQRO+
opp4CLxLXgHf63KUcgMicl8DUg==
-----END CERTIFICATE-----
