Certificate:
    Data:
        Version: 3 (0x2)
        Serial Number:
            e7:98:b6:9f:26:b1:34:2a:a0:ea:0c:56:55:3c:f7:e5
        Signature Algorithm: sha256WithRSAEncryption
        Issuer: CN=Easy-RSA CA
        Validity
            Not Before: May 14 01:57:55 2024 GMT
            Not After : May 12 01:57:55 2034 GMT
        Subject: CN=9fe51f80206cfaf760b997a585a1aec3
        Subject Public Key Info:
            Public Key Algorithm: rsaEncryption
                RSA Public-Key: (2048 bit)
                Modulus:
                    00:92:6c:5d:1c:9e:f4:8c:1b:9a:7a:c5:19:35:29:
                    5a:f0:f5:63:72:18:6b:62:72:9e:31:1c:a9:c1:c7:
                    b1:cb:18:19:dd:58:06:08:fe:a1:39:ff:11:51:79:
                    aa:3f:7a:34:a1:d0:bc:99:42:fc:16:b7:ec:44:20:
                    ba:1a:58:ee:54:a6:b2:dc:5b:b2:a1:a1:f4:ac:6d:
                    45:ff:77:84:b5:de:06:d1:5b:1b:27:9f:f3:8f:0c:
                    99:0c:f0:f0:f2:ec:20:87:74:41:4d:1b:92:bb:e2:
                    65:54:1d:a7:b3:c6:23:bd:9f:fa:e5:69:fe:d1:3b:
                    3f:93:c2:8c:81:90:00:6d:0a:99:07:15:7a:32:9c:
                    04:c5:ad:9f:a9:8f:64:ff:94:0e:75:d0:cb:3a:2b:
                    81:5c:7d:d0:30:24:10:af:f9:f5:82:9f:97:8e:87:
                    28:34:8f:b6:16:6f:24:e4:14:ce:92:71:f3:6a:96:
                    70:88:94:d1:cc:f2:76:10:d0:b1:bf:77:e2:8c:31:
                    ac:7f:29:a0:d4:3c:ae:97:f8:37:5b:bb:40:e0:02:
                    55:86:8d:e3:16:7c:48:b2:6f:0b:d3:49:70:7a:ab:
                    c1:fe:66:c4:6e:55:89:df:b6:ea:e4:4b:5b:ac:08:
                    c1:52:d6:75:13:87:16:5d:7d:8c:27:45:1b:b0:bc:
                    80:31
                Exponent: 65537 (0x10001)
        X509v3 extensions:
            X509v3 Basic Constraints: 
                CA:FALSE
            X509v3 Subject Key Identifier: 
                DF:D5:4B:8F:04:D5:95:06:5D:5B:F2:FA:6A:C9:CB:61:22:90:6F:31
            X509v3 Authority Key Identifier: 
                keyid:40:FA:6F:B4:75:ED:A5:98:90:09:C1:4C:46:41:77:2B:E9:19:98:A8
                DirName:/CN=Easy-RSA CA
                serial:3F:90:F5:95:20:0C:19:8D:91:81:72:D4:81:7B:92:A9:03:EB:DC:F6

            X509v3 Extended Key Usage: 
                TLS Web Client Authentication
            X509v3 Key Usage: 
                Digital Signature
    Signature Algorithm: sha256WithRSAEncryption
         7e:b4:ac:7d:4c:a4:fb:48:a4:54:dd:85:84:52:18:92:2a:01:
         57:e9:05:ed:c3:85:5d:6b:3b:8c:14:2a:63:01:86:d4:6e:39:
         83:1c:3b:df:89:7f:4c:04:df:d3:ee:ab:56:70:a9:80:37:a6:
         f7:87:b1:43:4d:58:52:3a:32:7b:9f:c3:38:80:f5:e9:35:1e:
         ff:95:2b:db:79:66:02:31:7f:62:c5:0a:1f:7f:ae:11:95:c2:
         6b:43:40:03:5e:16:f3:47:56:0a:a0:8a:4d:15:06:87:4d:f3:
         d8:24:3d:d6:bb:0c:32:8a:88:cd:6f:14:12:4c:38:37:0b:81:
         10:fa:34:74:ab:0f:52:a9:23:d6:5f:43:66:ef:14:38:27:5a:
         79:9d:f3:e0:cc:94:54:f5:83:07:19:de:11:b1:e6:65:65:1c:
         50:03:5f:6c:22:c8:34:37:04:3f:79:2c:43:60:c1:78:f5:e6:
         ae:d7:cf:a4:2f:28:98:69:a3:36:bb:c7:b6:f3:ea:53:5f:dc:
         e1:3b:34:eb:86:95:45:29:6b:06:d9:34:82:5f:63:68:25:e2:
         16:a0:ad:e8:8d:f4:d1:6f:6e:ea:17:cf:f7:48:48:8d:eb:c8:
         19:0a:64:40:c3:a5:7e:e5:3a:df:9d:c4:d8:9b:23:e7:45:26:
         15:db:fc:f4
-----BEGIN CERTIFICATE-----
MIIDbzCCAlegAwIBAgIRAOeYtp8msTQqoOoMVlU89+UwDQYJKoZIhvcNAQELBQAw
FjEUMBIGA1UEAwwLRWFzeS1SU0EgQ0EwHhcNMjQwNTE0MDE1NzU1WhcNMzQwNTEy
MDE1NzU1WjArMSkwJwYDVQQDDCA5ZmU1MWY4MDIwNmNmYWY3NjBiOTk3YTU4NWEx
YWVjMzCCASIwDQYJKoZIhvcNAQEBBQADggEPADCCAQoCggEBAJJsXRye9IwbmnrF
GTUpWvD1Y3IYa2JynjEcqcHHscsYGd1YBgj+oTn/EVF5qj96NKHQvJlC/Ba37EQg
uhpY7lSmstxbsqGh9KxtRf93hLXeBtFbGyef848MmQzw8PLsIId0QU0bkrviZVQd
p7PGI72f+uVp/tE7P5PCjIGQAG0KmQcVejKcBMWtn6mPZP+UDnXQyzorgVx90DAk
EK/59YKfl46HKDSPthZvJOQUzpJx82qWcIiU0czydhDQsb934owxrH8poNQ8rpf4
N1u7QOACVYaN4xZ8SLJvC9NJcHqrwf5mxG5Vid+26uRLW6wIwVLWdROHFl19jCdF
G7C8gDECAwEAAaOBojCBnzAJBgNVHRMEAjAAMB0GA1UdDgQWBBTf1UuPBNWVBl1b
8vpqycthIpBvMTBRBgNVHSMESjBIgBRA+m+0de2lmJAJwUxGQXcr6RmYqKEapBgw
FjEUMBIGA1UEAwwLRWFzeS1SU0EgQ0GCFD+Q9ZUgDBmNkYFy1IF7kqkD69z2MBMG
A1UdJQQMMAoGCCsGAQUFBwMCMAsGA1UdDwQEAwIHgDANBgkqhkiG9w0BAQsFAAOC
AQEAfrSsfUyk+0ikVN2FhFIYkioBV+kF7cOFXWs7jBQqYwGG1G45gxw734l/TATf
0+6rVnCpgDem94exQ01YUjoye5/DOID16TUe/5Ur23lmAjF/YsUKH3+uEZXCa0NA
A14W80dWCqCKTRUGh03z2CQ91rsMMoqIzW8UEkw4NwuBEPo0dKsPUqkj1l9DZu8U
OCdaeZ3z4MyUVPWDBxneEbHmZWUcUANfbCLINDcEP3ksQ2DBePXmrtfPpC8omGmj
NrvHtvPqU1/c4Ts064aVRSlrBtk0gl9jaCXiFqCt6I300W9u6hfP90hIjevIGQpk
QMOlfuU6353E2Jsj50UmFdv89A==
-----END CERTIFICATE-----
