Certificate:
    Data:
        Version: 3 (0x2)
        Serial Number:
            ec:21:3b:9d:70:58:ec:74:da:50:3f:a7:a2:2c:a4:b9
        Signature Algorithm: sha256WithRSAEncryption
        Issuer: CN=Easy-RSA CA
        Validity
            Not Before: May  8 14:38:48 2024 GMT
            Not After : May  6 14:38:48 2034 GMT
        Subject: CN=239f5dff7b474562f4b6524bf032472e
        Subject Public Key Info:
            Public Key Algorithm: rsaEncryption
                RSA Public-Key: (2048 bit)
                Modulus:
                    00:b5:97:34:f1:f4:d1:90:df:1a:97:22:9f:a9:d9:
                    86:95:0b:89:76:f3:5b:ab:41:12:ba:0e:96:3e:30:
                    57:56:c7:a2:0d:98:67:59:a7:d2:df:b9:4b:67:02:
                    d7:3d:f2:11:b8:ed:15:dc:bf:9f:2a:98:c8:f5:54:
                    7f:6b:53:cc:e4:be:2d:33:42:94:03:8d:51:88:b4:
                    2e:6c:0d:08:2b:ab:e4:07:5d:20:ec:85:43:ae:a2:
                    78:f1:9e:b0:2e:0d:c1:ad:5c:eb:25:00:b9:4b:d9:
                    fe:f1:d0:d6:4e:00:3a:4b:de:1d:d6:cf:d1:e2:6f:
                    75:e4:ed:78:b3:55:cc:b6:22:6c:d6:93:c6:16:60:
                    2a:13:bd:7d:82:f5:ea:31:84:ed:15:90:c1:4c:27:
                    ec:72:81:dd:3a:90:7a:b5:a7:cb:9b:d0:22:d9:34:
                    83:e9:51:c3:eb:c3:3f:d9:4c:8e:06:b0:74:b0:56:
                    b7:e2:15:96:17:91:76:7d:b5:65:88:b8:2d:8c:31:
                    15:81:68:d0:ef:f1:8e:50:bc:17:04:63:98:c9:23:
                    81:95:90:01:29:11:f7:28:62:75:8b:74:6d:39:ae:
                    34:8a:0b:aa:3a:18:a1:ad:f9:7a:10:18:e7:81:a6:
                    d4:6a:ee:31:57:37:77:14:5f:56:41:70:11:b6:20:
                    0e:03
                Exponent: 65537 (0x10001)
        X509v3 extensions:
            X509v3 Basic Constraints: 
                CA:FALSE
            X509v3 Subject Key Identifier: 
                48:44:90:6B:DD:07:75:B7:14:E3:BA:F1:4D:20:A6:70:08:24:88:4E
            X509v3 Authority Key Identifier: 
                keyid:40:FA:6F:B4:75:ED:A5:98:90:09:C1:4C:46:41:77:2B:E9:19:98:A8
                DirName:/CN=Easy-RSA CA
                serial:3F:90:F5:95:20:0C:19:8D:91:81:72:D4:81:7B:92:A9:03:EB:DC:F6

            X509v3 Extended Key Usage: 
                TLS Web Client Authentication
            X509v3 Key Usage: 
                Digital Signature
    Signature Algorithm: sha256WithRSAEncryption
         a5:5d:6d:db:5b:86:72:5d:36:1a:e2:f0:2e:e4:20:be:6e:9e:
         df:d9:82:2b:96:1a:19:fc:69:9f:dc:3c:c3:e1:b8:f8:f5:6c:
         9f:a8:3f:3c:45:6d:5b:af:32:0b:fd:df:1d:5c:57:87:43:ad:
         c8:f7:68:9f:e8:4d:fe:07:3f:56:ba:68:19:3b:09:09:6c:0f:
         19:0e:91:a0:4b:08:31:bb:01:80:7f:d7:cd:4a:33:4f:c0:4e:
         1c:8b:7f:a0:e2:9b:4b:6d:e6:f0:ed:e0:1a:57:e5:dd:02:39:
         b6:b5:51:cf:99:51:09:00:4f:c8:16:02:2e:03:67:8d:b7:7a:
         7a:1f:25:03:6f:61:2a:2e:08:ff:7c:fb:00:7b:83:4c:bf:fa:
         89:7b:27:78:cb:ec:11:82:a4:e2:b6:00:27:b4:a1:c9:03:90:
         9b:bb:ea:97:92:6c:3d:4c:a6:55:ca:08:6e:eb:f4:69:a4:93:
         15:f8:b6:26:27:e8:a9:26:b9:0e:6d:91:de:05:bc:a7:89:85:
         8b:27:27:1f:e1:f9:cf:28:1b:d1:5c:5a:28:3c:cd:44:67:59:
         41:18:40:e8:a7:52:a2:7d:07:9d:0b:06:85:2e:2f:de:47:87:
         8e:66:ae:d2:53:6d:8d:c4:54:41:df:bf:80:bd:ca:a6:c5:77:
         81:83:db:b3
-----BEGIN CERTIFICATE-----
MIIDbzCCAlegAwIBAgIRAOwhO51wWOx02lA/p6IspLkwDQYJKoZIhvcNAQELBQAw
FjEUMBIGA1UEAwwLRWFzeS1SU0EgQ0EwHhcNMjQwNTA4MTQzODQ4WhcNMzQwNTA2
MTQzODQ4WjArMSkwJwYDVQQDDCAyMzlmNWRmZjdiNDc0NTYyZjRiNjUyNGJmMDMy
NDcyZTCCASIwDQYJKoZIhvcNAQEBBQADggEPADCCAQoCggEBALWXNPH00ZDfGpci
n6nZhpULiXbzW6tBEroOlj4wV1bHog2YZ1mn0t+5S2cC1z3yEbjtFdy/nyqYyPVU
f2tTzOS+LTNClAONUYi0LmwNCCur5AddIOyFQ66iePGesC4Nwa1c6yUAuUvZ/vHQ
1k4AOkveHdbP0eJvdeTteLNVzLYibNaTxhZgKhO9fYL16jGE7RWQwUwn7HKB3TqQ
erWny5vQItk0g+lRw+vDP9lMjgawdLBWt+IVlheRdn21ZYi4LYwxFYFo0O/xjlC8
FwRjmMkjgZWQASkR9yhidYt0bTmuNIoLqjoYoa35ehAY54Gm1GruMVc3dxRfVkFw
EbYgDgMCAwEAAaOBojCBnzAJBgNVHRMEAjAAMB0GA1UdDgQWBBRIRJBr3Qd1txTj
uvFNIKZwCCSITjBRBgNVHSMESjBIgBRA+m+0de2lmJAJwUxGQXcr6RmYqKEapBgw
FjEUMBIGA1UEAwwLRWFzeS1SU0EgQ0GCFD+Q9ZUgDBmNkYFy1IF7kqkD69z2MBMG
A1UdJQQMMAoGCCsGAQUFBwMCMAsGA1UdDwQEAwIHgDANBgkqhkiG9w0BAQsFAAOC
AQEApV1t21uGcl02GuLwLuQgvm6e39mCK5YaGfxpn9w8w+G4+PVsn6g/PEVtW68y
C/3fHVxXh0OtyPdon+hN/gc/VrpoGTsJCWwPGQ6RoEsIMbsBgH/XzUozT8BOHIt/
oOKbS23m8O3gGlfl3QI5trVRz5lRCQBPyBYCLgNnjbd6eh8lA29hKi4I/3z7AHuD
TL/6iXsneMvsEYKk4rYAJ7ShyQOQm7vql5JsPUymVcoIbuv0aaSTFfi2JifoqSa5
Dm2R3gW8p4mFiycnH+H5zygb0VxaKDzNRGdZQRhA6KdSon0HnQsGhS4v3keHjmau
0lNtjcRUQd+/gL3KpsV3gYPbsw==
-----END CERTIFICATE-----
