Certificate:
    Data:
        Version: 3 (0x2)
        Serial Number:
            f7:c6:fb:26:e1:5c:45:07:65:6f:f4:ef:c9:be:45:a6
        Signature Algorithm: sha256WithRSAEncryption
        Issuer: CN=Easy-RSA CA
        Validity
            Not Before: May 14 12:02:56 2024 GMT
            Not After : May 12 12:02:56 2034 GMT
        Subject: CN=test
        Subject Public Key Info:
            Public Key Algorithm: rsaEncryption
                Public-Key: (2048 bit)
                Modulus:
                    00:b3:d0:cd:42:2d:ee:a8:fb:d8:6f:61:17:45:eb:
                    87:1b:28:10:24:48:0a:8d:e9:05:37:1f:8e:14:21:
                    40:e2:fc:24:b8:cf:a3:8f:33:bf:be:59:5a:13:b8:
                    04:77:6d:9f:d9:04:86:a9:7f:67:db:25:ff:a2:ec:
                    ac:67:a8:96:fa:90:97:ec:72:5a:e1:bd:84:20:f2:
                    2f:de:bd:91:da:23:fe:ec:9a:7d:47:90:08:8f:d7:
                    a0:83:3b:17:b5:f2:e1:0f:05:d5:b5:ea:57:85:d2:
                    56:15:d3:e1:8e:88:a0:0e:59:b4:e3:48:81:6d:9e:
                    77:eb:fe:74:7c:15:1c:bf:04:a3:a1:e0:cd:8e:52:
                    42:9f:05:21:1c:d1:db:f5:fe:57:8d:0c:5f:76:bd:
                    94:b9:08:14:0e:d7:dd:db:0b:6e:cf:66:af:6e:2e:
                    e5:4b:fb:81:ea:ca:5c:63:b0:01:e8:63:b4:72:e2:
                    43:82:3c:b3:7d:bf:01:4c:14:83:47:e5:27:a2:c5:
                    86:a2:ee:da:f9:17:57:72:31:50:cd:95:66:b7:8b:
                    63:18:11:db:8b:66:ab:39:8d:b0:fa:da:1b:4d:a1:
                    78:1d:1c:45:80:46:9c:4f:11:5a:d6:2c:03:71:74:
                    c0:60:80:02:d9:34:09:61:99:c7:3f:ba:7f:e4:47:
                    17:91
                Exponent: 65537 (0x10001)
        X509v3 extensions:
            X509v3 Basic Constraints: 
                CA:FALSE
            X509v3 Subject Key Identifier: 
                4F:87:F4:91:9A:BF:E6:12:91:68:E9:CB:0F:8A:44:A2:25:B2:17:F9
            X509v3 Authority Key Identifier: 
                keyid:40:FA:6F:B4:75:ED:A5:98:90:09:C1:4C:46:41:77:2B:E9:19:98:A8
                DirName:/CN=Easy-RSA CA
                serial:3F:90:F5:95:20:0C:19:8D:91:81:72:D4:81:7B:92:A9:03:EB:DC:F6
            X509v3 Extended Key Usage: 
                TLS Web Client Authentication
            X509v3 Key Usage: 
                Digital Signature
    Signature Algorithm: sha256WithRSAEncryption
    Signature Value:
        94:3e:ff:38:62:58:65:d8:fc:f9:78:52:ef:ad:3a:71:fb:69:
        15:1a:dc:3a:f1:6a:4a:04:fe:18:49:c1:17:0b:62:ee:71:5e:
        3c:26:1c:3b:5b:8f:28:d7:95:a7:3f:e2:7b:65:3d:a6:50:90:
        b3:3b:23:46:91:8a:5c:65:0c:11:da:a9:ad:8e:ef:7b:20:69:
        75:f9:78:2f:a0:68:86:18:b4:fe:fa:81:fb:fe:34:38:fe:ef:
        b6:2b:a4:2e:ac:3d:ad:94:85:61:ab:fd:18:d7:5b:da:46:4c:
        d2:76:a2:32:e8:1d:d3:dd:70:51:fe:d2:8e:60:40:d2:26:2e:
        15:89:98:86:01:db:b2:d6:26:4e:f1:43:7d:43:08:27:4e:d2:
        aa:40:c6:83:c7:72:00:a7:38:c4:6c:d5:5d:6f:d0:c7:98:d1:
        02:6a:bf:53:c0:ce:f1:0d:61:70:4f:5a:c2:71:73:95:84:d2:
        44:75:90:b2:43:0c:28:4f:68:3e:58:ec:bf:6f:59:f7:6b:b7:
        b7:03:ed:88:a9:b3:93:47:22:6c:7b:29:dd:98:95:19:12:39:
        23:21:4e:45:95:4a:6a:9c:86:12:c4:62:84:d3:52:4a:63:c7:
        5f:95:c4:52:49:e7:5f:e1:89:68:6e:db:9a:ed:3f:f7:fb:7b:
        9e:35:69:6c
-----BEGIN CERTIFICATE-----
MIIDUzCCAjugAwIBAgIRAPfG+ybhXEUHZW/078m+RaYwDQYJKoZIhvcNAQELBQAw
FjEUMBIGA1UEAwwLRWFzeS1SU0EgQ0EwHhcNMjQwNTE0MTIwMjU2WhcNMzQwNTEy
MTIwMjU2WjAPMQ0wCwYDVQQDDAR0ZXN0MIIBIjANBgkqhkiG9w0BAQEFAAOCAQ8A
MIIBCgKCAQEAs9DNQi3uqPvYb2EXReuHGygQJEgKjekFNx+OFCFA4vwkuM+jjzO/
vllaE7gEd22f2QSGqX9n2yX/ouysZ6iW+pCX7HJa4b2EIPIv3r2R2iP+7Jp9R5AI
j9eggzsXtfLhDwXVtepXhdJWFdPhjoigDlm040iBbZ536/50fBUcvwSjoeDNjlJC
nwUhHNHb9f5XjQxfdr2UuQgUDtfd2wtuz2avbi7lS/uB6spcY7AB6GO0cuJDgjyz
fb8BTBSDR+UnosWGou7a+RdXcjFQzZVmt4tjGBHbi2arOY2w+tobTaF4HRxFgEac
TxFa1iwDcXTAYIAC2TQJYZnHP7p/5EcXkQIDAQABo4GiMIGfMAkGA1UdEwQCMAAw
HQYDVR0OBBYEFE+H9JGav+YSkWjpyw+KRKIlshf5MFEGA1UdIwRKMEiAFED6b7R1
7aWYkAnBTEZBdyvpGZiooRqkGDAWMRQwEgYDVQQDDAtFYXN5LVJTQSBDQYIUP5D1
lSAMGY2RgXLUgXuSqQPr3PYwEwYDVR0lBAwwCgYIKwYBBQUHAwIwCwYDVR0PBAQD
AgeAMA0GCSqGSIb3DQEBCwUAA4IBAQCUPv84Ylhl2Pz5eFLvrTpx+2kVGtw68WpK
BP4YScEXC2LucV48Jhw7W48o15WnP+J7ZT2mUJCzOyNGkYpcZQwR2qmtju97IGl1
+XgvoGiGGLT++oH7/jQ4/u+2K6QurD2tlIVhq/0Y11vaRkzSdqIy6B3T3XBR/tKO
YEDSJi4ViZiGAduy1iZO8UN9QwgnTtKqQMaDx3IApzjEbNVdb9DHmNECar9TwM7x
DWFwT1rCcXOVhNJEdZCyQwwoT2g+WOy/b1n3a7e3A+2IqbOTRyJseyndmJUZEjkj
IU5FlUpqnIYSxGKE01JKY8dflcRSSedf4Ylobtua7T/3+3ueNWls
-----END CERTIFICATE-----
