Certificate:
    Data:
        Version: 3 (0x2)
        Serial Number:
            fa:42:11:55:a6:8f:c8:2c:1b:f7:3e:3e:b0:d1:2a:b2
        Signature Algorithm: sha256WithRSAEncryption
        Issuer: CN=Easy-RSA CA
        Validity
            Not Before: May 15 02:39:29 2024 GMT
            Not After : May 13 02:39:29 2034 GMT
        Subject: CN=b69b712f7bd6757ddcda59959c89a2b1
        Subject Public Key Info:
            Public Key Algorithm: rsaEncryption
                Public-Key: (2048 bit)
                Modulus:
                    00:ac:cb:35:cf:64:2b:77:31:ee:bc:dd:ac:81:7b:
                    98:b3:47:46:5b:ae:6b:6c:ac:29:53:01:97:10:2a:
                    a8:39:e7:ce:66:3f:d0:ff:7b:e4:98:72:06:bd:d8:
                    d3:a4:44:24:f0:ca:e3:1e:f4:cf:d2:26:08:7a:6a:
                    58:a3:0a:50:c6:1b:32:cc:68:b6:86:50:a1:f0:28:
                    60:98:32:f1:71:54:3e:60:62:bc:04:a8:a0:1f:a9:
                    b9:7c:6a:27:a8:8e:e9:6b:2d:17:e4:d3:7d:c7:cd:
                    9f:47:b9:d5:dc:3a:00:fa:90:0a:98:5d:da:aa:44:
                    6f:93:94:d5:eb:82:f0:fc:78:be:69:6b:78:6f:a7:
                    9a:df:d4:88:f3:9e:a6:fe:ca:dc:82:dc:17:1e:f0:
                    b8:02:f5:38:6f:69:3c:f1:6c:f1:f3:5f:90:37:fb:
                    20:27:23:6c:b9:60:42:c2:56:dc:a4:bc:2a:25:ef:
                    16:b9:b5:7d:bf:4c:57:8c:70:39:6e:de:7b:6e:81:
                    da:f6:e1:bf:56:4f:be:48:2a:97:68:66:25:20:91:
                    40:84:56:55:73:61:41:d2:7f:6a:ee:3e:0a:e5:52:
                    8b:d6:7a:ef:ed:53:c6:71:1e:16:2c:38:d6:09:80:
                    41:d4:63:3c:8a:a3:1a:08:a2:3d:6a:8c:16:aa:d3:
                    9f:75
                Exponent: 65537 (0x10001)
        X509v3 extensions:
            X509v3 Basic Constraints: 
                CA:FALSE
            X509v3 Subject Key Identifier: 
                C7:96:9B:D8:1C:CD:E6:C3:8D:98:45:68:F0:BB:6E:44:C9:FF:CD:B2
            X509v3 Authority Key Identifier: 
                keyid:40:FA:6F:B4:75:ED:A5:98:90:09:C1:4C:46:41:77:2B:E9:19:98:A8
                DirName:/CN=Easy-RSA CA
                serial:3F:90:F5:95:20:0C:19:8D:91:81:72:D4:81:7B:92:A9:03:EB:DC:F6
            X509v3 Extended Key Usage: 
                TLS Web Client Authentication
            X509v3 Key Usage: 
                Digital Signature
    Signature Algorithm: sha256WithRSAEncryption
    Signature Value:
        b9:57:7c:c2:6c:8f:d2:37:84:20:03:37:44:10:9b:74:dd:c7:
        70:eb:99:b9:c6:0f:28:c5:53:5e:27:52:74:51:a9:0e:c1:a4:
        2c:a8:90:15:94:4c:76:e8:9f:c7:cf:66:67:60:7d:77:09:fb:
        97:4e:ea:0d:87:46:04:87:96:d6:f0:09:06:6d:c2:9f:a7:75:
        20:5d:78:10:d3:2c:0e:13:25:f2:9a:60:46:99:26:eb:f7:3f:
        2a:0c:8d:b4:82:f7:6e:ac:94:aa:8b:65:57:3e:c5:31:46:a7:
        34:be:45:cb:3e:3f:32:81:b8:8a:29:d5:84:d2:e8:22:70:ce:
        1d:69:2b:fc:b1:87:4e:29:1c:6c:6f:bc:38:34:32:69:63:3c:
        75:c3:f6:4f:ff:f7:6f:86:6e:60:22:56:43:38:b0:be:35:1e:
        a9:bb:cb:34:a5:f9:55:ad:8a:7f:b3:7e:49:9f:ff:e7:0f:8a:
        57:d6:5f:f3:e6:5b:9f:0a:2c:8e:c9:06:1b:1d:6a:f6:9f:44:
        4f:b5:3d:c2:2f:44:d0:63:12:8c:a6:10:01:4a:0b:18:c7:e8:
        9a:26:c3:2b:1e:89:0f:e5:ea:e4:e2:75:f5:b0:da:69:48:9b:
        e4:cc:8d:f8:9e:66:69:c0:66:db:4b:3f:7c:6e:85:d9:48:c2:
        ea:1c:bf:a5
-----BEGIN CERTIFICATE-----
MIIDbzCCAlegAwIBAgIRAPpCEVWmj8gsG/c+PrDRKrIwDQYJKoZIhvcNAQELBQAw
FjEUMBIGA1UEAwwLRWFzeS1SU0EgQ0EwHhcNMjQwNTE1MDIzOTI5WhcNMzQwNTEz
MDIzOTI5WjArMSkwJwYDVQQDDCBiNjliNzEyZjdiZDY3NTdkZGNkYTU5OTU5Yzg5
YTJiMTCCASIwDQYJKoZIhvcNAQEBBQADggEPADCCAQoCggEBAKzLNc9kK3cx7rzd
rIF7mLNHRluua2ysKVMBlxAqqDnnzmY/0P975JhyBr3Y06REJPDK4x70z9ImCHpq
WKMKUMYbMsxotoZQofAoYJgy8XFUPmBivASooB+puXxqJ6iO6WstF+TTfcfNn0e5
1dw6APqQCphd2qpEb5OU1euC8Px4vmlreG+nmt/UiPOepv7K3ILcFx7wuAL1OG9p
PPFs8fNfkDf7ICcjbLlgQsJW3KS8KiXvFrm1fb9MV4xwOW7ee26B2vbhv1ZPvkgq
l2hmJSCRQIRWVXNhQdJ/au4+CuVSi9Z67+1TxnEeFiw41gmAQdRjPIqjGgiiPWqM
FqrTn3UCAwEAAaOBojCBnzAJBgNVHRMEAjAAMB0GA1UdDgQWBBTHlpvYHM3mw42Y
RWjwu25Eyf/NsjBRBgNVHSMESjBIgBRA+m+0de2lmJAJwUxGQXcr6RmYqKEapBgw
FjEUMBIGA1UEAwwLRWFzeS1SU0EgQ0GCFD+Q9ZUgDBmNkYFy1IF7kqkD69z2MBMG
A1UdJQQMMAoGCCsGAQUFBwMCMAsGA1UdDwQEAwIHgDANBgkqhkiG9w0BAQsFAAOC
AQEAuVd8wmyP0jeEIAM3RBCbdN3HcOuZucYPKMVTXidSdFGpDsGkLKiQFZRMduif
x89mZ2B9dwn7l07qDYdGBIeW1vAJBm3Cn6d1IF14ENMsDhMl8ppgRpkm6/c/KgyN
tIL3bqyUqotlVz7FMUanNL5Fyz4/MoG4iinVhNLoInDOHWkr/LGHTikcbG+8ODQy
aWM8dcP2T//3b4ZuYCJWQziwvjUeqbvLNKX5Va2Kf7N+SZ//5w+KV9Zf8+Zbnwos
jskGGx1q9p9ET7U9wi9E0GMSjKYQAUoLGMfomibDKx6JD+Xq5OJ19bDaaUib5MyN
+J5macBm20s/fG6F2UjC6hy/pQ==
-----END CERTIFICATE-----
