Certificate:
    Data:
        Version: 3 (0x2)
        Serial Number:
            03:0e:07:04:f8:57:a6:f0:81:d0:1b:b5:e2:a4:7f:43
        Signature Algorithm: sha256WithRSAEncryption
        Issuer: CN=Easy-RSA CA
        Validity
            Not Before: May 15 03:27:04 2024 GMT
            Not After : May 13 03:27:04 2034 GMT
        Subject: CN=79e6f0ad474a145ad45f2a437539a9f7
        Subject Public Key Info:
            Public Key Algorithm: rsaEncryption
                Public-Key: (2048 bit)
                Modulus:
                    00:8e:6b:25:55:33:8e:fc:e7:77:82:c4:4b:8f:f1:
                    95:cc:27:5f:16:b7:f0:35:9f:ff:94:1b:98:00:a2:
                    12:de:d6:41:e6:80:ff:9d:bc:d7:5b:b2:34:11:d3:
                    fd:3b:75:18:f8:68:4a:19:12:4a:4b:32:90:7b:10:
                    f6:1d:41:fc:d1:92:bf:c8:d6:0e:9d:1a:e6:46:bb:
                    ae:3d:ff:e5:3d:0d:3b:fb:78:85:a5:f5:7b:5f:ed:
                    82:c7:04:18:2d:88:4b:6b:c3:c5:e0:6e:df:90:43:
                    f1:a2:84:29:ee:2a:77:b8:da:4f:d9:0d:89:07:28:
                    5c:36:20:6d:96:be:c1:61:69:c8:12:a2:79:50:52:
                    db:1d:28:41:24:a7:34:5e:08:2a:c6:9e:e0:1c:87:
                    0d:76:25:5f:02:d7:20:36:c6:71:67:98:70:d3:0b:
                    74:40:29:fb:89:3e:b8:03:c8:34:b8:8a:9e:ca:5c:
                    11:4c:4e:f2:39:a2:8c:31:b6:11:bd:fd:ce:08:25:
                    b5:cf:46:76:e6:9f:42:b4:a5:72:60:ce:03:09:32:
                    5b:92:a5:05:1b:53:50:84:6f:54:cf:af:eb:21:c1:
                    b1:2f:ad:ee:51:eb:49:20:5d:3d:79:d7:d3:fd:5f:
                    d8:0e:95:ed:aa:a2:51:ac:0b:49:77:2f:1e:d4:d0:
                    b4:19
                Exponent: 65537 (0x10001)
        X509v3 extensions:
            X509v3 Basic Constraints: 
                CA:FALSE
            X509v3 Subject Key Identifier: 
                B6:DD:A6:CD:54:0B:8E:05:5A:C0:0F:E7:0B:A7:E6:42:69:F6:FA:54
            X509v3 Authority Key Identifier: 
                keyid:40:FA:6F:B4:75:ED:A5:98:90:09:C1:4C:46:41:77:2B:E9:19:98:A8
                DirName:/CN=Easy-RSA CA
                serial:3F:90:F5:95:20:0C:19:8D:91:81:72:D4:81:7B:92:A9:03:EB:DC:F6
            X509v3 Extended Key Usage: 
                TLS Web Client Authentication
            X509v3 Key Usage: 
                Digital Signature
    Signature Algorithm: sha256WithRSAEncryption
    Signature Value:
        83:fa:29:74:2e:1e:d1:cf:45:ce:cf:e8:6d:5c:2d:26:da:71:
        d6:c9:b7:66:3a:3a:0a:15:aa:22:f8:10:b2:f8:81:1c:89:10:
        42:3c:45:3a:85:a1:22:42:17:33:b7:7a:8c:1c:86:ac:5b:34:
        70:5c:80:83:28:e9:b3:f5:84:41:3c:4d:c1:d2:16:3a:a4:6e:
        41:fb:96:cf:26:ee:22:e0:62:c1:da:59:b0:04:6f:7d:3e:4d:
        1d:ef:83:ec:67:ba:de:00:de:77:b6:36:d7:ed:d6:2c:d8:d1:
        59:01:b8:78:c9:cd:3c:af:c5:ac:4d:89:da:57:3c:00:f2:8d:
        0a:79:0e:c3:76:d4:14:a7:e0:38:a1:24:b6:12:9c:52:0a:e1:
        7e:d7:33:21:8a:ff:36:13:61:13:4f:c2:a6:54:6c:5c:e6:51:
        44:31:c9:d4:67:32:bd:14:10:c6:6d:83:0e:fa:ac:dd:f5:ce:
        cc:23:16:ab:d1:2f:33:b7:49:0b:d4:6d:1c:82:cd:54:24:63:
        6e:de:ab:21:69:00:0b:68:eb:3d:83:8c:45:81:d6:e2:1a:7f:
        22:55:54:c7:b4:8e:5c:31:0d:4d:16:c7:58:aa:f5:0b:df:d7:
        3b:e1:8c:5b:f7:ae:1a:a5:01:39:99:2d:8d:66:53:12:34:a0:
        ee:22:bd:0d
-----BEGIN CERTIFICATE-----
MIIDbjCCAlagAwIBAgIQAw4HBPhXpvCB0Bu14qR/QzANBgkqhkiG9w0BAQsFADAW
MRQwEgYDVQQDDAtFYXN5LVJTQSBDQTAeFw0yNDA1MTUwMzI3MDRaFw0zNDA1MTMw
MzI3MDRaMCsxKTAnBgNVBAMMIDc5ZTZmMGFkNDc0YTE0NWFkNDVmMmE0Mzc1Mzlh
OWY3MIIBIjANBgkqhkiG9w0BAQEFAAOCAQ8AMIIBCgKCAQEAjmslVTOO/Od3gsRL
j/GVzCdfFrfwNZ//lBuYAKIS3tZB5oD/nbzXW7I0EdP9O3UY+GhKGRJKSzKQexD2
HUH80ZK/yNYOnRrmRruuPf/lPQ07+3iFpfV7X+2CxwQYLYhLa8PF4G7fkEPxooQp
7ip3uNpP2Q2JByhcNiBtlr7BYWnIEqJ5UFLbHShBJKc0Xggqxp7gHIcNdiVfAtcg
NsZxZ5hw0wt0QCn7iT64A8g0uIqeylwRTE7yOaKMMbYRvf3OCCW1z0Z25p9CtKVy
YM4DCTJbkqUFG1NQhG9Uz6/rIcGxL63uUetJIF09edfT/V/YDpXtqqJRrAtJdy8e
1NC0GQIDAQABo4GiMIGfMAkGA1UdEwQCMAAwHQYDVR0OBBYEFLbdps1UC44FWsAP
5wun5kJp9vpUMFEGA1UdIwRKMEiAFED6b7R17aWYkAnBTEZBdyvpGZiooRqkGDAW
MRQwEgYDVQQDDAtFYXN5LVJTQSBDQYIUP5D1lSAMGY2RgXLUgXuSqQPr3PYwEwYD
VR0lBAwwCgYIKwYBBQUHAwIwCwYDVR0PBAQDAgeAMA0GCSqGSIb3DQEBCwUAA4IB
AQCD+il0Lh7Rz0XOz+htXC0m2nHWybdmOjoKFaoi+BCy+IEciRBCPEU6haEiQhcz
t3qMHIasWzRwXICDKOmz9YRBPE3B0hY6pG5B+5bPJu4i4GLB2lmwBG99Pk0d74Ps
Z7reAN53tjbX7dYs2NFZAbh4yc08r8WsTYnaVzwA8o0KeQ7DdtQUp+A4oSS2EpxS
CuF+1zMhiv82E2ETT8KmVGxc5lFEMcnUZzK9FBDGbYMO+qzd9c7MIxar0S8zt0kL
1G0cgs1UJGNu3qshaQALaOs9g4xFgdbiGn8iVVTHtI5cMQ1NFsdYqvUL39c74Yxb
964apQE5mS2NZlMSNKDuIr0N
-----END CERTIFICATE-----
