Certificate:
    Data:
        Version: 3 (0x2)
        Serial Number:
            c2:bc:bd:75:cb:7b:9f:eb:2b:58:55:fa:1f:e4:82:2a
        Signature Algorithm: sha256WithRSAEncryption
        Issuer: CN=Easy-RSA CA
        Validity
            Not Before: May 15 03:25:51 2024 GMT
            Not After : May 13 03:25:51 2034 GMT
        Subject: CN=ad0234829205b9033196ba818f7a872b
        Subject Public Key Info:
            Public Key Algorithm: rsaEncryption
                Public-Key: (2048 bit)
                Modulus:
                    00:ca:51:14:20:5e:1a:34:4c:5c:8f:9b:63:85:f0:
                    9a:c5:1e:1a:ce:24:c9:da:16:0a:13:1b:1a:dd:8d:
                    ca:d3:bd:e0:bb:ce:35:13:36:b6:5f:75:61:5a:61:
                    ab:67:64:07:12:31:48:df:41:11:7b:d0:d9:fa:0a:
                    b3:c5:31:8c:f6:3c:5c:78:e1:7f:dc:2a:38:e5:41:
                    90:b6:ce:13:af:06:b4:cf:ba:91:04:c8:dc:17:30:
                    95:01:8f:cf:4d:ec:09:37:8d:49:7b:74:ca:12:54:
                    95:2e:27:53:29:58:b0:b0:a2:c3:0e:e2:11:49:54:
                    ec:6a:29:99:ff:77:08:5e:dd:9d:c6:80:cc:81:88:
                    7e:d5:8e:88:fa:be:f1:65:32:af:fb:3e:d0:88:4b:
                    c6:b5:a8:56:0a:45:f4:b6:4a:f6:d7:78:e3:19:58:
                    d6:63:4c:17:fc:d7:3f:59:a0:c2:9a:f9:7e:28:7c:
                    6c:03:8b:36:5b:39:00:54:a4:fd:3f:1a:a0:e6:27:
                    0b:fa:5a:96:05:57:c9:0e:9f:5e:eb:8b:d5:fb:65:
                    13:ef:44:3e:3c:af:a4:b3:1c:7b:f1:5c:2c:38:9a:
                    7f:f0:bf:b2:57:65:eb:d5:ac:b7:19:fa:be:4c:06:
                    af:34:24:ae:63:08:8b:3a:14:d5:5c:a8:57:65:b8:
                    1c:a1
                Exponent: 65537 (0x10001)
        X509v3 extensions:
            X509v3 Basic Constraints: 
                CA:FALSE
            X509v3 Subject Key Identifier: 
                E0:AF:07:DB:B1:50:B2:03:0D:86:B5:1D:10:5F:3E:15:F3:CB:59:2F
            X509v3 Authority Key Identifier: 
                keyid:40:FA:6F:B4:75:ED:A5:98:90:09:C1:4C:46:41:77:2B:E9:19:98:A8
                DirName:/CN=Easy-RSA CA
                serial:3F:90:F5:95:20:0C:19:8D:91:81:72:D4:81:7B:92:A9:03:EB:DC:F6
            X509v3 Extended Key Usage: 
                TLS Web Client Authentication
            X509v3 Key Usage: 
                Digital Signature
    Signature Algorithm: sha256WithRSAEncryption
    Signature Value:
        7e:f6:bc:1d:f6:32:ff:77:07:0e:81:ef:7e:14:d4:41:4d:bd:
        92:14:f2:3a:37:1b:f2:96:9d:b5:94:41:7b:32:b0:84:2a:3e:
        82:2f:ed:2f:e8:4f:7d:93:a5:5f:0d:36:43:bf:9b:be:f7:c9:
        2f:aa:fc:56:79:00:9c:2b:b8:41:f3:19:1f:e2:4f:af:bf:4a:
        cc:18:ce:ba:66:4c:0f:33:c9:ab:52:39:1b:ba:2f:70:8f:e7:
        0f:f9:75:01:71:ad:d9:88:24:1a:86:b2:cf:55:f7:87:1e:0e:
        72:e5:21:29:91:9c:02:9e:3c:97:8d:c1:4e:11:b5:b6:88:96:
        3a:24:43:d3:25:ef:40:78:90:85:c4:3f:b9:a5:e7:c2:4a:85:
        1f:4e:ec:8c:c6:09:83:4c:f9:b2:43:7d:50:31:2e:12:45:a4:
        21:11:81:13:4a:51:b3:85:6d:48:d5:be:96:4b:ee:96:a0:cd:
        7c:39:74:b4:58:a7:a3:0f:dd:fe:18:6a:bd:72:39:73:80:09:
        cb:2a:c9:bc:ae:15:0a:86:58:0b:84:e1:d3:92:84:03:6b:72:
        f4:1e:c9:dc:f7:93:01:17:75:d7:4f:e4:dc:02:44:11:67:af:
        cd:f1:a4:20:a8:b0:6b:5f:20:b6:a6:3f:04:e3:89:53:fa:37:
        37:48:2b:f2
-----BEGIN CERTIFICATE-----
MIIDbzCCAlegAwIBAgIRAMK8vXXLe5/rK1hV+h/kgiowDQYJKoZIhvcNAQELBQAw
FjEUMBIGA1UEAwwLRWFzeS1SU0EgQ0EwHhcNMjQwNTE1MDMyNTUxWhcNMzQwNTEz
MDMyNTUxWjArMSkwJwYDVQQDDCBhZDAyMzQ4MjkyMDViOTAzMzE5NmJhODE4Zjdh
ODcyYjCCASIwDQYJKoZIhvcNAQEBBQADggEPADCCAQoCggEBAMpRFCBeGjRMXI+b
Y4XwmsUeGs4kydoWChMbGt2NytO94LvONRM2tl91YVphq2dkBxIxSN9BEXvQ2foK
s8UxjPY8XHjhf9wqOOVBkLbOE68GtM+6kQTI3BcwlQGPz03sCTeNSXt0yhJUlS4n
UylYsLCiww7iEUlU7Gopmf93CF7dncaAzIGIftWOiPq+8WUyr/s+0IhLxrWoVgpF
9LZK9td44xlY1mNMF/zXP1mgwpr5fih8bAOLNls5AFSk/T8aoOYnC/palgVXyQ6f
XuuL1ftlE+9EPjyvpLMce/FcLDiaf/C/sldl69Wstxn6vkwGrzQkrmMIizoU1Vyo
V2W4HKECAwEAAaOBojCBnzAJBgNVHRMEAjAAMB0GA1UdDgQWBBTgrwfbsVCyAw2G
tR0QXz4V88tZLzBRBgNVHSMESjBIgBRA+m+0de2lmJAJwUxGQXcr6RmYqKEapBgw
FjEUMBIGA1UEAwwLRWFzeS1SU0EgQ0GCFD+Q9ZUgDBmNkYFy1IF7kqkD69z2MBMG
A1UdJQQMMAoGCCsGAQUFBwMCMAsGA1UdDwQEAwIHgDANBgkqhkiG9w0BAQsFAAOC
AQEAfva8HfYy/3cHDoHvfhTUQU29khTyOjcb8padtZRBezKwhCo+gi/tL+hPfZOl
Xw02Q7+bvvfJL6r8VnkAnCu4QfMZH+JPr79KzBjOumZMDzPJq1I5G7ovcI/nD/l1
AXGt2YgkGoayz1X3hx4OcuUhKZGcAp48l43BThG1toiWOiRD0yXvQHiQhcQ/uaXn
wkqFH07sjMYJg0z5skN9UDEuEkWkIRGBE0pRs4VtSNW+lkvulqDNfDl0tFinow/d
/hhqvXI5c4AJyyrJvK4VCoZYC4Th05KEA2ty9B7J3PeTARd110/k3AJEEWevzfGk
IKiwa18gtqY/BOOJU/o3N0gr8g==
-----END CERTIFICATE-----
