Certificate:
    Data:
        Version: 3 (0x2)
        Serial Number:
            7e:e1:9d:65:5b:7f:d9:2d:19:b6:2b:8d:ff:07:b7:b1
        Signature Algorithm: sha256WithRSAEncryption
        Issuer: CN=Easy-RSA CA
        Validity
            Not Before: May 15 03:25:34 2024 GMT
            Not After : May 13 03:25:34 2034 GMT
        Subject: CN=d3bff8450106a52369b8b4dbca7b1b16
        Subject Public Key Info:
            Public Key Algorithm: rsaEncryption
                Public-Key: (2048 bit)
                Modulus:
                    00:a1:6e:50:1a:0d:d9:06:93:a0:54:37:53:af:99:
                    4b:e6:d9:bb:34:7e:6f:52:a3:14:d2:6d:a1:e2:a0:
                    7a:53:fb:83:4a:03:73:0f:f9:0e:c9:b5:ca:a9:e7:
                    c7:09:86:d6:65:9b:6b:26:a6:a1:25:e3:48:e4:3a:
                    51:1b:39:92:39:08:db:52:cb:8a:8f:c7:83:a3:b9:
                    7f:13:ff:f8:f3:bb:31:7e:36:fb:64:b9:c9:a8:4d:
                    11:bf:4e:19:cb:18:d6:d0:65:38:8a:36:4d:24:82:
                    2a:23:00:2a:19:43:de:ca:9f:15:26:7f:e4:cb:5f:
                    b2:e5:38:a8:00:32:b3:f7:81:d7:5a:2a:5d:16:2a:
                    d4:bf:10:a3:ee:a0:f8:18:a5:b6:a4:ee:5c:b3:83:
                    1f:46:de:75:df:4f:40:4e:1f:06:ab:f3:79:4a:ff:
                    da:b4:dd:fb:bf:f2:7d:51:0b:b0:a7:1b:d0:c2:63:
                    07:0c:e3:e9:95:96:0e:31:2b:04:f3:be:9c:06:04:
                    9a:85:e5:3a:2e:37:b1:c5:71:ce:4b:31:62:cf:6e:
                    7d:a9:66:9e:b1:81:f4:be:0a:19:25:4d:77:19:38:
                    fc:ca:fa:e9:00:a8:4e:df:07:5e:02:ff:fa:54:e5:
                    34:90:bc:e1:dd:f1:d5:0c:39:74:a5:06:89:ad:b6:
                    2e:f5
                Exponent: 65537 (0x10001)
        X509v3 extensions:
            X509v3 Basic Constraints: 
                CA:FALSE
            X509v3 Subject Key Identifier: 
                8C:1D:73:B0:0A:EB:E0:9C:C2:A5:EE:D5:09:46:C7:26:1C:54:10:65
            X509v3 Authority Key Identifier: 
                keyid:40:FA:6F:B4:75:ED:A5:98:90:09:C1:4C:46:41:77:2B:E9:19:98:A8
                DirName:/CN=Easy-RSA CA
                serial:3F:90:F5:95:20:0C:19:8D:91:81:72:D4:81:7B:92:A9:03:EB:DC:F6
            X509v3 Extended Key Usage: 
                TLS Web Client Authentication
            X509v3 Key Usage: 
                Digital Signature
    Signature Algorithm: sha256WithRSAEncryption
    Signature Value:
        a0:fe:22:79:dd:56:90:2d:cd:bd:51:d2:de:78:ec:3b:75:9f:
        4d:83:11:2d:9a:1a:58:dd:e9:8f:d9:05:02:36:56:43:4c:40:
        1a:10:24:8a:81:9d:fe:65:83:6d:69:52:e8:db:88:bb:54:fe:
        d5:d4:ee:9d:d1:52:24:15:e6:5c:06:54:f3:3f:69:ba:87:01:
        ef:89:eb:67:57:62:10:75:2c:5e:d8:e0:a4:79:c7:3b:62:8f:
        fb:bc:a7:cd:c7:dc:b3:e3:d2:5b:83:45:dc:bc:b5:0e:1a:ba:
        83:2c:eb:a2:36:fa:55:05:5c:ec:96:0b:34:94:f2:ad:3c:c5:
        c4:5c:5f:5d:0a:da:d4:55:18:78:ff:36:52:c4:76:39:f6:6f:
        f6:ca:cc:8f:1e:62:59:ee:67:d8:11:d0:da:b8:d2:03:0b:83:
        e0:5a:c8:e0:0f:ba:08:21:7a:eb:de:04:88:ec:1b:57:dc:57:
        de:ff:48:c5:93:a3:0f:72:63:74:bc:24:3b:a6:2f:ed:58:17:
        35:d5:49:36:34:cd:b3:2c:26:dc:1e:f6:ce:be:49:bb:e0:6f:
        0c:66:40:0b:bd:09:63:b1:52:b9:a7:68:76:3e:5c:04:30:8b:
        73:45:44:78:62:80:ee:ac:6c:d9:97:20:28:43:ca:88:c2:81:
        fc:6e:c8:c4
-----BEGIN CERTIFICATE-----
MIIDbjCCAlagAwIBAgIQfuGdZVt/2S0ZtiuN/we3sTANBgkqhkiG9w0BAQsFADAW
MRQwEgYDVQQDDAtFYXN5LVJTQSBDQTAeFw0yNDA1MTUwMzI1MzRaFw0zNDA1MTMw
MzI1MzRaMCsxKTAnBgNVBAMMIGQzYmZmODQ1MDEwNmE1MjM2OWI4YjRkYmNhN2Ix
YjE2MIIBIjANBgkqhkiG9w0BAQEFAAOCAQ8AMIIBCgKCAQEAoW5QGg3ZBpOgVDdT
r5lL5tm7NH5vUqMU0m2h4qB6U/uDSgNzD/kOybXKqefHCYbWZZtrJqahJeNI5DpR
GzmSOQjbUsuKj8eDo7l/E//487sxfjb7ZLnJqE0Rv04ZyxjW0GU4ijZNJIIqIwAq
GUPeyp8VJn/ky1+y5TioADKz94HXWipdFirUvxCj7qD4GKW2pO5cs4MfRt51309A
Th8Gq/N5Sv/atN37v/J9UQuwpxvQwmMHDOPplZYOMSsE876cBgSaheU6LjexxXHO
SzFiz259qWaesYH0vgoZJU13GTj8yvrpAKhO3wdeAv/6VOU0kLzh3fHVDDl0pQaJ
rbYu9QIDAQABo4GiMIGfMAkGA1UdEwQCMAAwHQYDVR0OBBYEFIwdc7AK6+CcwqXu
1QlGxyYcVBBlMFEGA1UdIwRKMEiAFED6b7R17aWYkAnBTEZBdyvpGZiooRqkGDAW
MRQwEgYDVQQDDAtFYXN5LVJTQSBDQYIUP5D1lSAMGY2RgXLUgXuSqQPr3PYwEwYD
VR0lBAwwCgYIKwYBBQUHAwIwCwYDVR0PBAQDAgeAMA0GCSqGSIb3DQEBCwUAA4IB
AQCg/iJ53VaQLc29UdLeeOw7dZ9NgxEtmhpY3emP2QUCNlZDTEAaECSKgZ3+ZYNt
aVLo24i7VP7V1O6d0VIkFeZcBlTzP2m6hwHvietnV2IQdSxe2OCkecc7Yo/7vKfN
x9yz49Jbg0XcvLUOGrqDLOuiNvpVBVzslgs0lPKtPMXEXF9dCtrUVRh4/zZSxHY5
9m/2ysyPHmJZ7mfYEdDauNIDC4PgWsjgD7oIIXrr3gSI7BtX3Ffe/0jFk6MPcmN0
vCQ7pi/tWBc11Uk2NM2zLCbcHvbOvkm74G8MZkALvQljsVK5p2h2PlwEMItzRUR4
YoDurGzZlyAoQ8qIwoH8bsjE
-----END CERTIFICATE-----
